---
triple:          'arm64-apple-darwin'
binary-path:     '/Users/yushuai/Documents/Princeton/MAE557/HW1/burgers_solver/solver_explicit'
relocations:
  - { offset: 0xDBFD, size: 0x8, addend: 0x0, symName: __ZStL8__ioinit, symObjAddr: 0x38E910, symBinAddr: 0x100020000, symSize: 0x0 }
  - { offset: 0x58A61, size: 0x8, addend: 0x0, symName: __ZN5Eigen8internalL13p2ul_CONJ_XORE, symObjAddr: 0x38E920, symBinAddr: 0x100020010, symSize: 0x0 }
  - { offset: 0x58A9E, size: 0x8, addend: 0x0, symName: __ZN5EigenL4lastE, symObjAddr: 0x38E930, symBinAddr: 0x100020020, symSize: 0x0 }
  - { offset: 0x58AEB, size: 0x8, addend: 0x0, symName: __ZN5EigenL6lastp1E, symObjAddr: 0x38E931, symBinAddr: 0x100020021, symSize: 0x0 }
  - { offset: 0x58B05, size: 0x8, addend: 0x0, symName: __ZN5EigenL3allE, symObjAddr: 0x38E933, symBinAddr: 0x100020023, symSize: 0x0 }
  - { offset: 0x5AE2B, size: 0x8, addend: 0x0, symName: __ZN5EigenL3fixILi1EEE, symObjAddr: 0x38EA30, symBinAddr: 0x100020120, symSize: 0x0 }
  - { offset: 0x5AF5B, size: 0x8, addend: 0x0, symName: __GLOBAL__sub_I_solver_explicit.cpp, symObjAddr: 0xD44C, symBinAddr: 0x10000CCF4, symSize: 0x14 }
  - { offset: 0x5AF73, size: 0x8, addend: 0x0, symName: __Z41__static_initialization_and_destruction_0v, symObjAddr: 0xD3A4, symBinAddr: 0x10000CC4C, symSize: 0xA8 }
  - { offset: 0x5AFB4, size: 0x8, addend: 0x0, symName: __ZNK5Eigen13CwiseBinaryOpINS_8internal17scalar_product_opIddEEKNS_14CwiseNullaryOpINS1_18scalar_constant_opIdEEKNS_5ArrayIdLin1ELi1ELi0ELin1ELi1EEEEEKNS_12ArrayWrapperINS_6MatrixIdLin1ELi1ELi0ELin1ELi1EEEEEE3rhsEv, symObjAddr: 0xC4F4, symBinAddr: 0x10000CC34, symSize: 0x18 }
  - { offset: 0x5AFDE, size: 0x8, addend: 0x0, symName: __ZNK5Eigen13CwiseBinaryOpINS_8internal17scalar_product_opIddEEKNS_14CwiseNullaryOpINS1_18scalar_constant_opIdEEKNS_5ArrayIdLin1ELi1ELi0ELin1ELi1EEEEEKNS_12ArrayWrapperINS_6MatrixIdLin1ELi1ELi0ELin1ELi1EEEEEE3lhsEv, symObjAddr: 0xC4DC, symBinAddr: 0x10000CC1C, symSize: 0x18 }
  - { offset: 0x5B008, size: 0x8, addend: 0x0, symName: __ZNK5Eigen13CwiseBinaryOpINS_8internal17scalar_product_opIddEEKNS_14CwiseNullaryOpINS1_18scalar_constant_opIdEEKNS_5ArrayIdLin1ELi1ELi0ELin1ELi1EEEEEKNS_12ArrayWrapperINS_6MatrixIdLin1ELi1ELi0ELin1ELi1EEEEEE7functorEv, symObjAddr: 0xC4C4, symBinAddr: 0x10000CC04, symSize: 0x18 }
  - { offset: 0x5B032, size: 0x8, addend: 0x0, symName: __ZNK5Eigen13CwiseBinaryOpINS_8internal20scalar_difference_opIddEEKNS_12ArrayWrapperINS_6MatrixIdLin1ELi1ELi0ELin1ELi1EEEEEKNS_14CwiseNullaryOpINS1_18scalar_constant_opIdEEKNS_5ArrayIdLin1ELi1ELi0ELin1ELi1EEEEEE3rhsEv, symObjAddr: 0xC4AC, symBinAddr: 0x10000CBEC, symSize: 0x18 }
  - { offset: 0x5B05C, size: 0x8, addend: 0x0, symName: __ZNK5Eigen13CwiseBinaryOpINS_8internal20scalar_difference_opIddEEKNS_12ArrayWrapperINS_6MatrixIdLin1ELi1ELi0ELin1ELi1EEEEEKNS_14CwiseNullaryOpINS1_18scalar_constant_opIdEEKNS_5ArrayIdLin1ELi1ELi0ELin1ELi1EEEEEE3lhsEv, symObjAddr: 0xC498, symBinAddr: 0x10000CBD8, symSize: 0x14 }
  - { offset: 0x5B086, size: 0x8, addend: 0x0, symName: __ZNK5Eigen13CwiseBinaryOpINS_8internal20scalar_difference_opIddEEKNS_12ArrayWrapperINS_6MatrixIdLin1ELi1ELi0ELin1ELi1EEEEEKNS_14CwiseNullaryOpINS1_18scalar_constant_opIdEEKNS_5ArrayIdLin1ELi1ELi0ELin1ELi1EEEEEE7functorEv, symObjAddr: 0xC480, symBinAddr: 0x10000CBC0, symSize: 0x18 }
  - { offset: 0x5B0B0, size: 0x8, addend: 0x0, symName: __ZNK5Eigen12CwiseUnaryOpINS_8internal18scalar_opposite_opIdEEKNS_13CwiseBinaryOpINS1_20scalar_difference_opIddEEKNS_12ArrayWrapperINS_6MatrixIdLin1ELi1ELi0ELin1ELi1EEEEEKNS_14CwiseNullaryOpINS1_18scalar_constant_opIdEEKNS_5ArrayIdLin1ELi1ELi0ELin1ELi1EEEEEEEE16nestedExpressionEv, symObjAddr: 0xC468, symBinAddr: 0x10000CBA8, symSize: 0x18 }
  - { offset: 0x5B0DA, size: 0x8, addend: 0x0, symName: __ZNK5Eigen12CwiseUnaryOpINS_8internal18scalar_opposite_opIdEEKNS_13CwiseBinaryOpINS1_20scalar_difference_opIddEEKNS_12ArrayWrapperINS_6MatrixIdLin1ELi1ELi0ELin1ELi1EEEEEKNS_14CwiseNullaryOpINS1_18scalar_constant_opIdEEKNS_5ArrayIdLin1ELi1ELi0ELin1ELi1EEEEEEEE7functorEv, symObjAddr: 0xC450, symBinAddr: 0x10000CB90, symSize: 0x18 }
  - { offset: 0x5B12C, size: 0x8, addend: 0x0, symName: __ZN5Eigen8internal16binary_evaluatorINS_13CwiseBinaryOpINS0_17scalar_product_opIddEEKNS_14CwiseNullaryOpINS0_18scalar_constant_opIdEEKNS_5ArrayIdLin1ELi1ELi0ELin1ELi1EEEEEKNS_12ArrayWrapperINS_6MatrixIdLin1ELi1ELi0ELin1ELi1EEEEEEENS0_10IndexBasedESJ_ddE4DataC1ERKSI_, symObjAddr: 0xC3C4, symBinAddr: 0x10000CB04, symSize: 0x8C }
  - { offset: 0x5B175, size: 0x8, addend: 0x0, symName: __ZN5Eigen8internal14evaluator_baseINS_13CwiseBinaryOpINS0_17scalar_product_opIddEEKNS_14CwiseNullaryOpINS0_18scalar_constant_opIdEEKNS_5ArrayIdLin1ELi1ELi0ELin1ELi1EEEEEKNS_12ArrayWrapperINS_6MatrixIdLin1ELi1ELi0ELin1ELi1EEEEEEEEC2Ev, symObjAddr: 0xC3B0, symBinAddr: 0x10000CAF0, symSize: 0x14 }
  - { offset: 0x5B1C3, size: 0x8, addend: 0x0, symName: __ZN5Eigen8internal16binary_evaluatorINS_13CwiseBinaryOpINS0_20scalar_difference_opIddEEKNS_12ArrayWrapperINS_6MatrixIdLin1ELi1ELi0ELin1ELi1EEEEEKNS_14CwiseNullaryOpINS0_18scalar_constant_opIdEEKNS_5ArrayIdLin1ELi1ELi0ELin1ELi1EEEEEEENS0_10IndexBasedESJ_ddE4DataC1ERKSI_, symObjAddr: 0xC324, symBinAddr: 0x10000CA64, symSize: 0x8C }
  - { offset: 0x5B20C, size: 0x8, addend: 0x0, symName: __ZN5Eigen8internal14evaluator_baseINS_13CwiseBinaryOpINS0_20scalar_difference_opIddEEKNS_12ArrayWrapperINS_6MatrixIdLin1ELi1ELi0ELin1ELi1EEEEEKNS_14CwiseNullaryOpINS0_18scalar_constant_opIdEEKNS_5ArrayIdLin1ELi1ELi0ELin1ELi1EEEEEEEEC2Ev, symObjAddr: 0xC310, symBinAddr: 0x10000CA50, symSize: 0x14 }
  - { offset: 0x5B25A, size: 0x8, addend: 0x0, symName: __ZN5Eigen8internal15unary_evaluatorINS_12CwiseUnaryOpINS0_18scalar_opposite_opIdEEKNS_13CwiseBinaryOpINS0_20scalar_difference_opIddEEKNS_12ArrayWrapperINS_6MatrixIdLin1ELi1ELi0ELin1ELi1EEEEEKNS_14CwiseNullaryOpINS0_18scalar_constant_opIdEEKNS_5ArrayIdLin1ELi1ELi0ELin1ELi1EEEEEEEEENS0_10IndexBasedEdE4DataC1ERKSN_, symObjAddr: 0xC2B8, symBinAddr: 0x10000C9F8, symSize: 0x58 }
  - { offset: 0x5B2A3, size: 0x8, addend: 0x0, symName: __ZN5Eigen8internal14evaluator_baseINS_12CwiseUnaryOpINS0_18scalar_opposite_opIdEEKNS_13CwiseBinaryOpINS0_20scalar_difference_opIddEEKNS_12ArrayWrapperINS_6MatrixIdLin1ELi1ELi0ELin1ELi1EEEEEKNS_14CwiseNullaryOpINS0_18scalar_constant_opIdEEKNS_5ArrayIdLin1ELi1ELi0ELin1ELi1EEEEEEEEEEC2Ev, symObjAddr: 0xC2A4, symBinAddr: 0x10000C9E4, symSize: 0x14 }
  - { offset: 0x5B2F1, size: 0x8, addend: 0x0, symName: __ZN5Eigen8internal16binary_evaluatorINS_13CwiseBinaryOpINS0_17scalar_product_opIddEEKNS_14CwiseNullaryOpINS0_18scalar_constant_opIdEEKNS_5ArrayIdLin1ELi1ELi0ELin1ELi1EEEEEKNS_12ArrayWrapperINS_6MatrixIdLin1ELi1ELi0ELin1ELi1EEEEEEENS0_10IndexBasedESJ_ddEC2ERKSI_, symObjAddr: 0xC258, symBinAddr: 0x10000C998, symSize: 0x4C }
  - { offset: 0x5B348, size: 0x8, addend: 0x0, symName: __ZN5Eigen8internal16binary_evaluatorINS_13CwiseBinaryOpINS0_20scalar_difference_opIddEEKNS_12ArrayWrapperINS_6MatrixIdLin1ELi1ELi0ELin1ELi1EEEEEKNS_14CwiseNullaryOpINS0_18scalar_constant_opIdEEKNS_5ArrayIdLin1ELi1ELi0ELin1ELi1EEEEEEENS0_10IndexBasedESJ_ddEC2ERKSI_, symObjAddr: 0xC20C, symBinAddr: 0x10000C94C, symSize: 0x4C }
  - { offset: 0x5B39F, size: 0x8, addend: 0x0, symName: __ZN5Eigen8internal15unary_evaluatorINS_12CwiseUnaryOpINS0_18scalar_opposite_opIdEEKNS_13CwiseBinaryOpINS0_20scalar_difference_opIddEEKNS_12ArrayWrapperINS_6MatrixIdLin1ELi1ELi0ELin1ELi1EEEEEKNS_14CwiseNullaryOpINS0_18scalar_constant_opIdEEKNS_5ArrayIdLin1ELi1ELi0ELin1ELi1EEEEEEEEENS0_10IndexBasedEdEC2ERKSN_, symObjAddr: 0xC1C0, symBinAddr: 0x10000C900, symSize: 0x4C }
  - { offset: 0x5B3F6, size: 0x8, addend: 0x0, symName: __ZN5Eigen8internal9evaluatorINS_13CwiseBinaryOpINS0_17scalar_product_opIddEEKNS_14CwiseNullaryOpINS0_18scalar_constant_opIdEEKNS_5ArrayIdLin1ELi1ELi0ELin1ELi1EEEEEKNS_12ArrayWrapperINS_6MatrixIdLin1ELi1ELi0ELin1ELi1EEEEEEEEC2ERKSI_, symObjAddr: 0xC198, symBinAddr: 0x10000C8D8, symSize: 0x28 }
  - { offset: 0x5B44D, size: 0x8, addend: 0x0, symName: __ZN5Eigen8internal9evaluatorINS_13CwiseBinaryOpINS0_20scalar_difference_opIddEEKNS_12ArrayWrapperINS_6MatrixIdLin1ELi1ELi0ELin1ELi1EEEEEKNS_14CwiseNullaryOpINS0_18scalar_constant_opIdEEKNS_5ArrayIdLin1ELi1ELi0ELin1ELi1EEEEEEEEC2ERKSI_, symObjAddr: 0xC170, symBinAddr: 0x10000C8B0, symSize: 0x28 }
  - { offset: 0x5B4A3, size: 0x8, addend: 0x0, symName: __ZN5Eigen8internal9evaluatorINS_12CwiseUnaryOpINS0_18scalar_opposite_opIdEEKNS_13CwiseBinaryOpINS0_20scalar_difference_opIddEEKNS_12ArrayWrapperINS_6MatrixIdLin1ELi1ELi0ELin1ELi1EEEEEKNS_14CwiseNullaryOpINS0_18scalar_constant_opIdEEKNS_5ArrayIdLin1ELi1ELi0ELin1ELi1EEEEEEEEEEC2ERKSN_, symObjAddr: 0xC148, symBinAddr: 0x10000C888, symSize: 0x28 }
  - { offset: 0x5B4F9, size: 0x8, addend: 0x0, symName: __ZN5Eigen8internal9evaluatorIKNS_13CwiseBinaryOpINS0_17scalar_product_opIddEEKNS_14CwiseNullaryOpINS0_18scalar_constant_opIdEEKNS_5ArrayIdLin1ELi1ELi0ELin1ELi1EEEEEKNS_12ArrayWrapperINS_6MatrixIdLin1ELi1ELi0ELin1ELi1EEEEEEEEC1ERSJ_, symObjAddr: 0xC120, symBinAddr: 0x10000C860, symSize: 0x28 }
  - { offset: 0x5B528, size: 0x8, addend: 0x0, symName: __ZNK5Eigen13CwiseBinaryOpINS_8internal13scalar_sum_opIddEEKNS0_INS1_17scalar_product_opIddEEKNS_14CwiseNullaryOpINS1_18scalar_constant_opIdEEKNS_5ArrayIdLin1ELi1ELi0ELin1ELi1EEEEEKNS_12ArrayWrapperINS_6MatrixIdLin1ELi1ELi0ELin1ELi1EEEEEEESK_E3rhsEv, symObjAddr: 0xC108, symBinAddr: 0x10000C848, symSize: 0x18 }
  - { offset: 0x5B552, size: 0x8, addend: 0x0, symName: __ZNK5Eigen13CwiseBinaryOpINS_8internal13scalar_sum_opIddEEKNS0_INS1_17scalar_product_opIddEEKNS_14CwiseNullaryOpINS1_18scalar_constant_opIdEEKNS_5ArrayIdLin1ELi1ELi0ELin1ELi1EEEEEKNS_12ArrayWrapperINS_6MatrixIdLin1ELi1ELi0ELin1ELi1EEEEEEESK_E3lhsEv, symObjAddr: 0xC0F0, symBinAddr: 0x10000C830, symSize: 0x18 }
  - { offset: 0x5B57C, size: 0x8, addend: 0x0, symName: __ZNK5Eigen13CwiseBinaryOpINS_8internal13scalar_sum_opIddEEKNS0_INS1_17scalar_product_opIddEEKNS_14CwiseNullaryOpINS1_18scalar_constant_opIdEEKNS_5ArrayIdLin1ELi1ELi0ELin1ELi1EEEEEKNS_12ArrayWrapperINS_6MatrixIdLin1ELi1ELi0ELin1ELi1EEEEEEESK_E7functorEv, symObjAddr: 0xC0D8, symBinAddr: 0x10000C818, symSize: 0x18 }
  - { offset: 0x5B5CD, size: 0x8, addend: 0x0, symName: __ZN5Eigen8internal9evaluatorIKNS_13CwiseBinaryOpINS0_20scalar_difference_opIddEEKNS_12ArrayWrapperINS_6MatrixIdLin1ELi1ELi0ELin1ELi1EEEEEKNS_14CwiseNullaryOpINS0_18scalar_constant_opIdEEKNS_5ArrayIdLin1ELi1ELi0ELin1ELi1EEEEEEEEC1ERSJ_, symObjAddr: 0xC0B0, symBinAddr: 0x10000C7F0, symSize: 0x28 }
  - { offset: 0x5B623, size: 0x8, addend: 0x0, symName: __ZN5Eigen8internal9evaluatorIKNS_12CwiseUnaryOpINS0_18scalar_opposite_opIdEEKNS_13CwiseBinaryOpINS0_20scalar_difference_opIddEEKNS_12ArrayWrapperINS_6MatrixIdLin1ELi1ELi0ELin1ELi1EEEEEKNS_14CwiseNullaryOpINS0_18scalar_constant_opIdEEKNS_5ArrayIdLin1ELi1ELi0ELin1ELi1EEEEEEEEEEC1ERSO_, symObjAddr: 0xC088, symBinAddr: 0x10000C7C8, symSize: 0x28 }
  - { offset: 0x5B652, size: 0x8, addend: 0x0, symName: __ZNK5Eigen13CwiseBinaryOpINS_8internal17scalar_product_opIddEEKNS_12CwiseUnaryOpINS1_18scalar_opposite_opIdEEKNS0_INS1_20scalar_difference_opIddEEKNS_12ArrayWrapperINS_6MatrixIdLin1ELi1ELi0ELin1ELi1EEEEEKNS_14CwiseNullaryOpINS1_18scalar_constant_opIdEEKNS_5ArrayIdLin1ELi1ELi0ELin1ELi1EEEEEEEEESN_E3rhsEv, symObjAddr: 0xC070, symBinAddr: 0x10000C7B0, symSize: 0x18 }
  - { offset: 0x5B67C, size: 0x8, addend: 0x0, symName: __ZNK5Eigen13CwiseBinaryOpINS_8internal17scalar_product_opIddEEKNS_12CwiseUnaryOpINS1_18scalar_opposite_opIdEEKNS0_INS1_20scalar_difference_opIddEEKNS_12ArrayWrapperINS_6MatrixIdLin1ELi1ELi0ELin1ELi1EEEEEKNS_14CwiseNullaryOpINS1_18scalar_constant_opIdEEKNS_5ArrayIdLin1ELi1ELi0ELin1ELi1EEEEEEEEESN_E3lhsEv, symObjAddr: 0xC058, symBinAddr: 0x10000C798, symSize: 0x18 }
  - { offset: 0x5B6A6, size: 0x8, addend: 0x0, symName: __ZNK5Eigen13CwiseBinaryOpINS_8internal17scalar_product_opIddEEKNS_12CwiseUnaryOpINS1_18scalar_opposite_opIdEEKNS0_INS1_20scalar_difference_opIddEEKNS_12ArrayWrapperINS_6MatrixIdLin1ELi1ELi0ELin1ELi1EEEEEKNS_14CwiseNullaryOpINS1_18scalar_constant_opIdEEKNS_5ArrayIdLin1ELi1ELi0ELin1ELi1EEEEEEEEESN_E7functorEv, symObjAddr: 0xC040, symBinAddr: 0x10000C780, symSize: 0x18 }
  - { offset: 0x5B6F8, size: 0x8, addend: 0x0, symName: __ZN5Eigen8internal16binary_evaluatorINS_13CwiseBinaryOpINS0_13scalar_sum_opIddEEKNS2_INS0_17scalar_product_opIddEEKNS_14CwiseNullaryOpINS0_18scalar_constant_opIdEEKNS_5ArrayIdLin1ELi1ELi0ELin1ELi1EEEEEKNS_12ArrayWrapperINS_6MatrixIdLin1ELi1ELi0ELin1ELi1EEEEEEESL_EENS0_10IndexBasedESN_ddE4DataC1ERKSM_, symObjAddr: 0xBFB4, symBinAddr: 0x10000C6F4, symSize: 0x8C }
  - { offset: 0x5B741, size: 0x8, addend: 0x0, symName: __ZN5Eigen8internal14evaluator_baseINS_13CwiseBinaryOpINS0_13scalar_sum_opIddEEKNS2_INS0_17scalar_product_opIddEEKNS_14CwiseNullaryOpINS0_18scalar_constant_opIdEEKNS_5ArrayIdLin1ELi1ELi0ELin1ELi1EEEEEKNS_12ArrayWrapperINS_6MatrixIdLin1ELi1ELi0ELin1ELi1EEEEEEESL_EEEC2Ev, symObjAddr: 0xBFA0, symBinAddr: 0x10000C6E0, symSize: 0x14 }
  - { offset: 0x5B78F, size: 0x8, addend: 0x0, symName: __ZN5Eigen8internal16binary_evaluatorINS_13CwiseBinaryOpINS0_17scalar_product_opIddEEKNS_12CwiseUnaryOpINS0_18scalar_opposite_opIdEEKNS2_INS0_20scalar_difference_opIddEEKNS_12ArrayWrapperINS_6MatrixIdLin1ELi1ELi0ELin1ELi1EEEEEKNS_14CwiseNullaryOpINS0_18scalar_constant_opIdEEKNS_5ArrayIdLin1ELi1ELi0ELin1ELi1EEEEEEEEESO_EENS0_10IndexBasedESS_ddE4DataC1ERKSR_, symObjAddr: 0xBF14, symBinAddr: 0x10000C654, symSize: 0x8C }
  - { offset: 0x5B7D8, size: 0x8, addend: 0x0, symName: __ZN5Eigen8internal14evaluator_baseINS_13CwiseBinaryOpINS0_17scalar_product_opIddEEKNS_12CwiseUnaryOpINS0_18scalar_opposite_opIdEEKNS2_INS0_20scalar_difference_opIddEEKNS_12ArrayWrapperINS_6MatrixIdLin1ELi1ELi0ELin1ELi1EEEEEKNS_14CwiseNullaryOpINS0_18scalar_constant_opIdEEKNS_5ArrayIdLin1ELi1ELi0ELin1ELi1EEEEEEEEESO_EEEC2Ev, symObjAddr: 0xBF00, symBinAddr: 0x10000C640, symSize: 0x14 }
  - { offset: 0x5B826, size: 0x8, addend: 0x0, symName: __ZN5Eigen8internal16binary_evaluatorINS_13CwiseBinaryOpINS0_13scalar_sum_opIddEEKNS2_INS0_17scalar_product_opIddEEKNS_14CwiseNullaryOpINS0_18scalar_constant_opIdEEKNS_5ArrayIdLin1ELi1ELi0ELin1ELi1EEEEEKNS_12ArrayWrapperINS_6MatrixIdLin1ELi1ELi0ELin1ELi1EEEEEEESL_EENS0_10IndexBasedESN_ddEC2ERKSM_, symObjAddr: 0xBEB4, symBinAddr: 0x10000C5F4, symSize: 0x4C }
  - { offset: 0x5B86F, size: 0x8, addend: 0x0, symName: __ZN5Eigen8internal14evaluator_baseINS_14CwiseNullaryOpINS0_18scalar_constant_opIdEEKNS_5ArrayIdLin1ELi1ELi0ELin1ELi1EEEEEEC2Ev, symObjAddr: 0xBEA0, symBinAddr: 0x10000C5E0, symSize: 0x14 }
  - { offset: 0x5B895, size: 0x8, addend: 0x0, symName: __ZNK5Eigen14CwiseNullaryOpINS_8internal18scalar_constant_opIdEEKNS_5ArrayIdLin1ELi1ELi0ELin1ELi1EEEE7functorEv, symObjAddr: 0xBE88, symBinAddr: 0x10000C5C8, symSize: 0x18 }
  - { offset: 0x5B8E7, size: 0x8, addend: 0x0, symName: __ZN5Eigen8internal16binary_evaluatorINS_13CwiseBinaryOpINS0_17scalar_product_opIddEEKNS_12CwiseUnaryOpINS0_18scalar_opposite_opIdEEKNS2_INS0_20scalar_difference_opIddEEKNS_12ArrayWrapperINS_6MatrixIdLin1ELi1ELi0ELin1ELi1EEEEEKNS_14CwiseNullaryOpINS0_18scalar_constant_opIdEEKNS_5ArrayIdLin1ELi1ELi0ELin1ELi1EEEEEEEEESO_EENS0_10IndexBasedESS_ddEC2ERKSR_, symObjAddr: 0xBE3C, symBinAddr: 0x10000C57C, symSize: 0x4C }
  - { offset: 0x5B93E, size: 0x8, addend: 0x0, symName: __ZN5Eigen8internal9evaluatorINS_13CwiseBinaryOpINS0_13scalar_sum_opIddEEKNS2_INS0_17scalar_product_opIddEEKNS_14CwiseNullaryOpINS0_18scalar_constant_opIdEEKNS_5ArrayIdLin1ELi1ELi0ELin1ELi1EEEEEKNS_12ArrayWrapperINS_6MatrixIdLin1ELi1ELi0ELin1ELi1EEEEEEESL_EEEC2ERKSM_, symObjAddr: 0xBE14, symBinAddr: 0x10000C554, symSize: 0x28 }
  - { offset: 0x5B995, size: 0x8, addend: 0x0, symName: __ZN5Eigen8internal9evaluatorINS_14CwiseNullaryOpINS0_18scalar_constant_opIdEEKNS_5ArrayIdLin1ELi1ELi0ELin1ELi1EEEEEEC2ERKS8_, symObjAddr: 0xBDD0, symBinAddr: 0x10000C510, symSize: 0x44 }
  - { offset: 0x5B9EC, size: 0x8, addend: 0x0, symName: __ZN5Eigen8internal9evaluatorINS_13CwiseBinaryOpINS0_17scalar_product_opIddEEKNS_12CwiseUnaryOpINS0_18scalar_opposite_opIdEEKNS2_INS0_20scalar_difference_opIddEEKNS_12ArrayWrapperINS_6MatrixIdLin1ELi1ELi0ELin1ELi1EEEEEKNS_14CwiseNullaryOpINS0_18scalar_constant_opIdEEKNS_5ArrayIdLin1ELi1ELi0ELin1ELi1EEEEEEEEESO_EEEC2ERKSR_, symObjAddr: 0xBDA8, symBinAddr: 0x10000C4E8, symSize: 0x28 }
  - { offset: 0x5BA42, size: 0x8, addend: 0x0, symName: __ZN5Eigen8internal9evaluatorIKNS_13CwiseBinaryOpINS0_13scalar_sum_opIddEEKNS2_INS0_17scalar_product_opIddEEKNS_14CwiseNullaryOpINS0_18scalar_constant_opIdEEKNS_5ArrayIdLin1ELi1ELi0ELin1ELi1EEEEEKNS_12ArrayWrapperINS_6MatrixIdLin1ELi1ELi0ELin1ELi1EEEEEEESL_EEEC1ERSN_, symObjAddr: 0xBD80, symBinAddr: 0x10000C4C0, symSize: 0x28 }
  - { offset: 0x5BA98, size: 0x8, addend: 0x0, symName: __ZN5Eigen8internal9evaluatorIKNS_14CwiseNullaryOpINS0_18scalar_constant_opIdEEKNS_5ArrayIdLin1ELi1ELi0ELin1ELi1EEEEEEC1ERS9_, symObjAddr: 0xBD58, symBinAddr: 0x10000C498, symSize: 0x28 }
  - { offset: 0x5BAC7, size: 0x8, addend: 0x0, symName: __ZNK5Eigen13CwiseBinaryOpINS_8internal17scalar_product_opIddEEKNS_14CwiseNullaryOpINS1_18scalar_constant_opIdEEKNS_5ArrayIdLin1ELi1ELi0ELin1ELi1EEEEEKNS0_INS1_13scalar_sum_opIddEEKNS0_IS3_SB_KNS_12ArrayWrapperINS_6MatrixIdLin1ELi1ELi0ELin1ELi1EEEEEEESK_EEE3rhsEv, symObjAddr: 0xBD40, symBinAddr: 0x10000C480, symSize: 0x18 }
  - { offset: 0x5BAF1, size: 0x8, addend: 0x0, symName: __ZNK5Eigen13CwiseBinaryOpINS_8internal17scalar_product_opIddEEKNS_14CwiseNullaryOpINS1_18scalar_constant_opIdEEKNS_5ArrayIdLin1ELi1ELi0ELin1ELi1EEEEEKNS0_INS1_13scalar_sum_opIddEEKNS0_IS3_SB_KNS_12ArrayWrapperINS_6MatrixIdLin1ELi1ELi0ELin1ELi1EEEEEEESK_EEE3lhsEv, symObjAddr: 0xBD28, symBinAddr: 0x10000C468, symSize: 0x18 }
  - { offset: 0x5BB1B, size: 0x8, addend: 0x0, symName: __ZNK5Eigen13CwiseBinaryOpINS_8internal17scalar_product_opIddEEKNS_14CwiseNullaryOpINS1_18scalar_constant_opIdEEKNS_5ArrayIdLin1ELi1ELi0ELin1ELi1EEEEEKNS0_INS1_13scalar_sum_opIddEEKNS0_IS3_SB_KNS_12ArrayWrapperINS_6MatrixIdLin1ELi1ELi0ELin1ELi1EEEEEEESK_EEE7functorEv, symObjAddr: 0xBD10, symBinAddr: 0x10000C450, symSize: 0x18 }
  - { offset: 0x5BB5F, size: 0x8, addend: 0x0, symName: __ZN5Eigen8internal14evaluator_baseINS_12ArrayWrapperINS_6MatrixIdLin1ELi1ELi0ELin1ELi1EEEEEEC2Ev, symObjAddr: 0xBCFC, symBinAddr: 0x10000C43C, symSize: 0x14 }
  - { offset: 0x5BBAC, size: 0x8, addend: 0x0, symName: __ZN5Eigen8internal9evaluatorIKNS_13CwiseBinaryOpINS0_17scalar_product_opIddEEKNS_12CwiseUnaryOpINS0_18scalar_opposite_opIdEEKNS2_INS0_20scalar_difference_opIddEEKNS_12ArrayWrapperINS_6MatrixIdLin1ELi1ELi0ELin1ELi1EEEEEKNS_14CwiseNullaryOpINS0_18scalar_constant_opIdEEKNS_5ArrayIdLin1ELi1ELi0ELin1ELi1EEEEEEEEESO_EEEC1ERSS_, symObjAddr: 0xBCD4, symBinAddr: 0x10000C414, symSize: 0x28 }
  - { offset: 0x5BBDB, size: 0x8, addend: 0x0, symName: __ZNK5Eigen12CwiseUnaryOpINS_8internal13scalar_exp_opIdEEKNS_13CwiseBinaryOpINS1_17scalar_product_opIddEEKNS0_INS1_18scalar_opposite_opIdEEKNS4_INS1_20scalar_difference_opIddEEKNS_12ArrayWrapperINS_6MatrixIdLin1ELi1ELi0ELin1ELi1EEEEEKNS_14CwiseNullaryOpINS1_18scalar_constant_opIdEEKNS_5ArrayIdLin1ELi1ELi0ELin1ELi1EEEEEEEEESP_EEE16nestedExpressionEv, symObjAddr: 0xBCBC, symBinAddr: 0x10000C3FC, symSize: 0x18 }
  - { offset: 0x5BC05, size: 0x8, addend: 0x0, symName: __ZNK5Eigen12CwiseUnaryOpINS_8internal13scalar_exp_opIdEEKNS_13CwiseBinaryOpINS1_17scalar_product_opIddEEKNS0_INS1_18scalar_opposite_opIdEEKNS4_INS1_20scalar_difference_opIddEEKNS_12ArrayWrapperINS_6MatrixIdLin1ELi1ELi0ELin1ELi1EEEEEKNS_14CwiseNullaryOpINS1_18scalar_constant_opIdEEKNS_5ArrayIdLin1ELi1ELi0ELin1ELi1EEEEEEEEESP_EEE7functorEv, symObjAddr: 0xBCA4, symBinAddr: 0x10000C3E4, symSize: 0x18 }
  - { offset: 0x5BC2F, size: 0x8, addend: 0x0, symName: __ZNK5Eigen12CwiseUnaryOpINS_8internal13scalar_sin_opIdEEKNS_12ArrayWrapperINS_6MatrixIdLin1ELi1ELi0ELin1ELi1EEEEEE16nestedExpressionEv, symObjAddr: 0xBC90, symBinAddr: 0x10000C3D0, symSize: 0x14 }
  - { offset: 0x5BC59, size: 0x8, addend: 0x0, symName: __ZNK5Eigen12CwiseUnaryOpINS_8internal13scalar_sin_opIdEEKNS_12ArrayWrapperINS_6MatrixIdLin1ELi1ELi0ELin1ELi1EEEEEE7functorEv, symObjAddr: 0xBC78, symBinAddr: 0x10000C3B8, symSize: 0x18 }
  - { offset: 0x5BC83, size: 0x8, addend: 0x0, symName: __ZNK5Eigen8internal16binary_evaluatorINS_13CwiseBinaryOpINS0_17scalar_product_opIddEEKNS_14CwiseNullaryOpINS0_18scalar_constant_opIdEEKNS_5ArrayIdLin1ELi1ELi0ELin1ELi1EEEEEKNS_12ArrayWrapperINS_6MatrixIdLin1ELi1ELi0ELin1ELi1EEEEEEENS0_10IndexBasedESJ_ddE5coeffEl, symObjAddr: 0xBC04, symBinAddr: 0x10000C344, symSize: 0x74 }
  - { offset: 0x5BCC9, size: 0x8, addend: 0x0, symName: __ZNK5Eigen8internal15nullary_wrapperIdNS0_18scalar_constant_opIdEELb1ELb0ELb0EEclIlEEdRKS3_T_S8_, symObjAddr: 0xBBD4, symBinAddr: 0x10000C314, symSize: 0x30 }
  - { offset: 0x5BD1F, size: 0x8, addend: 0x0, symName: __ZNK5Eigen8internal16binary_evaluatorINS_13CwiseBinaryOpINS0_17scalar_product_opIddEEKNS_14CwiseNullaryOpINS0_18scalar_constant_opIdEEKNS_5ArrayIdLin1ELi1ELi0ELin1ELi1EEEEEKNS_12ArrayWrapperINS_6MatrixIdLin1ELi1ELi0ELin1ELi1EEEEEEENS0_10IndexBasedESJ_ddE4Data4funcEv, symObjAddr: 0xBBC0, symBinAddr: 0x10000C300, symSize: 0x14 }
  - { offset: 0x5BD49, size: 0x8, addend: 0x0, symName: __ZNK5Eigen8internal18scalar_constant_opIdE8packetOpI13__Float64x2_tEEKT_v, symObjAddr: 0xBB9C, symBinAddr: 0x10000C2DC, symSize: 0x24 }
  - { offset: 0x5BDA4, size: 0x8, addend: 0x0, symName: __ZN5Eigen8internal16binary_evaluatorINS_13CwiseBinaryOpINS0_17scalar_product_opIddEEKNS_14CwiseNullaryOpINS0_18scalar_constant_opIdEEKNS_5ArrayIdLin1ELi1ELi0ELin1ELi1EEEEEKNS2_INS0_13scalar_sum_opIddEEKNS2_IS4_SC_KNS_12ArrayWrapperINS_6MatrixIdLin1ELi1ELi0ELin1ELi1EEEEEEESL_EEEENS0_10IndexBasedESP_ddE4DataC1ERKSO_, symObjAddr: 0xBB10, symBinAddr: 0x10000C250, symSize: 0x8C }
  - { offset: 0x5BDED, size: 0x8, addend: 0x0, symName: __ZN5Eigen8internal14evaluator_baseINS_13CwiseBinaryOpINS0_17scalar_product_opIddEEKNS_14CwiseNullaryOpINS0_18scalar_constant_opIdEEKNS_5ArrayIdLin1ELi1ELi0ELin1ELi1EEEEEKNS2_INS0_13scalar_sum_opIddEEKNS2_IS4_SC_KNS_12ArrayWrapperINS_6MatrixIdLin1ELi1ELi0ELin1ELi1EEEEEEESL_EEEEEC2Ev, symObjAddr: 0xBAFC, symBinAddr: 0x10000C23C, symSize: 0x14 }
  - { offset: 0x5BE3B, size: 0x8, addend: 0x0, symName: __ZN5Eigen8internal22evaluator_wrapper_baseINS_12ArrayWrapperINS_6MatrixIdLin1ELi1ELi0ELin1ELi1EEEEEEC2ERKS4_, symObjAddr: 0xBAB0, symBinAddr: 0x10000C1F0, symSize: 0x4C }
  - { offset: 0x5BE6A, size: 0x8, addend: 0x0, symName: __ZNK5Eigen12ArrayWrapperINS_6MatrixIdLin1ELi1ELi0ELin1ELi1EEEE16nestedExpressionEv, symObjAddr: 0xBA98, symBinAddr: 0x10000C1D8, symSize: 0x18 }
  - { offset: 0x5BE94, size: 0x8, addend: 0x0, symName: __ZNK5Eigen13CwiseBinaryOpINS_8internal20scalar_difference_opIddEEKNS_6MatrixIdLin1ELi1ELi0ELin1ELi1EEES6_E3rhsEv, symObjAddr: 0xBA80, symBinAddr: 0x10000C1C0, symSize: 0x18 }
  - { offset: 0x5BEBE, size: 0x8, addend: 0x0, symName: __ZNK5Eigen13CwiseBinaryOpINS_8internal20scalar_difference_opIddEEKNS_6MatrixIdLin1ELi1ELi0ELin1ELi1EEES6_E3lhsEv, symObjAddr: 0xBA68, symBinAddr: 0x10000C1A8, symSize: 0x18 }
  - { offset: 0x5BEE8, size: 0x8, addend: 0x0, symName: __ZNK5Eigen13CwiseBinaryOpINS_8internal20scalar_difference_opIddEEKNS_6MatrixIdLin1ELi1ELi0ELin1ELi1EEES6_E7functorEv, symObjAddr: 0xBA50, symBinAddr: 0x10000C190, symSize: 0x18 }
  - { offset: 0x5BF12, size: 0x8, addend: 0x0, symName: __ZNK5Eigen8internal16binary_evaluatorINS_13CwiseBinaryOpINS0_20scalar_difference_opIddEEKNS_12ArrayWrapperINS_6MatrixIdLin1ELi1ELi0ELin1ELi1EEEEEKNS_14CwiseNullaryOpINS0_18scalar_constant_opIdEEKNS_5ArrayIdLin1ELi1ELi0ELin1ELi1EEEEEEENS0_10IndexBasedESJ_ddE4Data4funcEv, symObjAddr: 0xBA3C, symBinAddr: 0x10000C17C, symSize: 0x14 }
  - { offset: 0x5BF3C, size: 0x8, addend: 0x0, symName: __ZNK5Eigen8internal18scalar_opposite_opIdEclERKd, symObjAddr: 0xBA18, symBinAddr: 0x10000C158, symSize: 0x24 }
  - { offset: 0x5BF76, size: 0x8, addend: 0x0, symName: __ZNK5Eigen8internal15unary_evaluatorINS_12CwiseUnaryOpINS0_18scalar_opposite_opIdEEKNS_13CwiseBinaryOpINS0_20scalar_difference_opIddEEKNS_12ArrayWrapperINS_6MatrixIdLin1ELi1ELi0ELin1ELi1EEEEEKNS_14CwiseNullaryOpINS0_18scalar_constant_opIdEEKNS_5ArrayIdLin1ELi1ELi0ELin1ELi1EEEEEEEEENS0_10IndexBasedEdE4Data4funcEv, symObjAddr: 0xBA04, symBinAddr: 0x10000C144, symSize: 0x14 }
  - { offset: 0x5BFC8, size: 0x8, addend: 0x0, symName: __ZN5Eigen8internal15unary_evaluatorINS_12CwiseUnaryOpINS0_13scalar_exp_opIdEEKNS_13CwiseBinaryOpINS0_17scalar_product_opIddEEKNS2_INS0_18scalar_opposite_opIdEEKNS5_INS0_20scalar_difference_opIddEEKNS_12ArrayWrapperINS_6MatrixIdLin1ELi1ELi0ELin1ELi1EEEEEKNS_14CwiseNullaryOpINS0_18scalar_constant_opIdEEKNS_5ArrayIdLin1ELi1ELi0ELin1ELi1EEEEEEEEESQ_EEEENS0_10IndexBasedEdE4DataC1ERKSV_, symObjAddr: 0xB9AC, symBinAddr: 0x10000C0EC, symSize: 0x58 }
  - { offset: 0x5C011, size: 0x8, addend: 0x0, symName: __ZN5Eigen8internal14evaluator_baseINS_12CwiseUnaryOpINS0_13scalar_exp_opIdEEKNS_13CwiseBinaryOpINS0_17scalar_product_opIddEEKNS2_INS0_18scalar_opposite_opIdEEKNS5_INS0_20scalar_difference_opIddEEKNS_12ArrayWrapperINS_6MatrixIdLin1ELi1ELi0ELin1ELi1EEEEEKNS_14CwiseNullaryOpINS0_18scalar_constant_opIdEEKNS_5ArrayIdLin1ELi1ELi0ELin1ELi1EEEEEEEEESQ_EEEEEC2Ev, symObjAddr: 0xB998, symBinAddr: 0x10000C0D8, symSize: 0x14 }
  - { offset: 0x5C05F, size: 0x8, addend: 0x0, symName: __ZN5Eigen8internal15unary_evaluatorINS_12CwiseUnaryOpINS0_13scalar_sin_opIdEEKNS_12ArrayWrapperINS_6MatrixIdLin1ELi1ELi0ELin1ELi1EEEEEEENS0_10IndexBasedEdE4DataC1ERKSA_, symObjAddr: 0xB940, symBinAddr: 0x10000C080, symSize: 0x58 }
  - { offset: 0x5C0A8, size: 0x8, addend: 0x0, symName: __ZN5Eigen8internal14evaluator_baseINS_12CwiseUnaryOpINS0_13scalar_sin_opIdEEKNS_12ArrayWrapperINS_6MatrixIdLin1ELi1ELi0ELin1ELi1EEEEEEEEC2Ev, symObjAddr: 0xB92C, symBinAddr: 0x10000C06C, symSize: 0x14 }
  - { offset: 0x5C0CE, size: 0x8, addend: 0x0, symName: __ZNK5Eigen8internal16binary_evaluatorINS_13CwiseBinaryOpINS0_13scalar_sum_opIddEEKNS2_INS0_17scalar_product_opIddEEKNS_14CwiseNullaryOpINS0_18scalar_constant_opIdEEKNS_5ArrayIdLin1ELi1ELi0ELin1ELi1EEEEEKNS_12ArrayWrapperINS_6MatrixIdLin1ELi1ELi0ELin1ELi1EEEEEEESL_EENS0_10IndexBasedESN_ddE5coeffEl, symObjAddr: 0xB8B0, symBinAddr: 0x10000BFF0, symSize: 0x7C }
  - { offset: 0x5C114, size: 0x8, addend: 0x0, symName: __ZNK5Eigen8internal9evaluatorINS_14CwiseNullaryOpINS0_18scalar_constant_opIdEEKNS_5ArrayIdLin1ELi1ELi0ELin1ELi1EEEEEE5coeffIlEEdT_, symObjAddr: 0xB878, symBinAddr: 0x10000BFB8, symSize: 0x38 }
  - { offset: 0x5C158, size: 0x8, addend: 0x0, symName: __ZNK5Eigen8internal16binary_evaluatorINS_13CwiseBinaryOpINS0_17scalar_product_opIddEEKNS_14CwiseNullaryOpINS0_18scalar_constant_opIdEEKNS_5ArrayIdLin1ELi1ELi0ELin1ELi1EEEEEKNS_12ArrayWrapperINS_6MatrixIdLin1ELi1ELi0ELin1ELi1EEEEEEENS0_10IndexBasedESJ_ddE6packetILi16E13__Float64x2_tEET0_l, symObjAddr: 0xB7FC, symBinAddr: 0x10000BF3C, symSize: 0x7C }
  - { offset: 0x5C1A6, size: 0x8, addend: 0x0, symName: __ZNK5Eigen8internal16binary_evaluatorINS_13CwiseBinaryOpINS0_13scalar_sum_opIddEEKNS2_INS0_17scalar_product_opIddEEKNS_14CwiseNullaryOpINS0_18scalar_constant_opIdEEKNS_5ArrayIdLin1ELi1ELi0ELin1ELi1EEEEEKNS_12ArrayWrapperINS_6MatrixIdLin1ELi1ELi0ELin1ELi1EEEEEEESL_EENS0_10IndexBasedESN_ddE4Data4funcEv, symObjAddr: 0xB7E8, symBinAddr: 0x10000BF28, symSize: 0x14 }
  - { offset: 0x5C1D0, size: 0x8, addend: 0x0, symName: __ZNK5Eigen8internal15nullary_wrapperIdNS0_18scalar_constant_opIdEELb1ELb0ELb0EE8packetOpI13__Float64x2_tlEET_RKS3_T0_SA_, symObjAddr: 0xB7B8, symBinAddr: 0x10000BEF8, symSize: 0x30 }
  - { offset: 0x5C257, size: 0x8, addend: 0x0, symName: __ZN5Eigen8internal16binary_evaluatorINS_13CwiseBinaryOpINS0_17scalar_product_opIddEEKNS_14CwiseNullaryOpINS0_18scalar_constant_opIdEEKNS_5ArrayIdLin1ELi1ELi0ELin1ELi1EEEEEKNS2_INS0_13scalar_sum_opIddEEKNS2_IS4_SC_KNS_12ArrayWrapperINS_6MatrixIdLin1ELi1ELi0ELin1ELi1EEEEEEESL_EEEENS0_10IndexBasedESP_ddEC2ERKSO_, symObjAddr: 0xB76C, symBinAddr: 0x10000BEAC, symSize: 0x4C }
  - { offset: 0x5C2AE, size: 0x8, addend: 0x0, symName: __ZN5Eigen8internal15unary_evaluatorINS_12ArrayWrapperINS_6MatrixIdLin1ELi1ELi0ELin1ELi1EEEEENS0_10IndexBasedEdEC2ERKS5_, symObjAddr: 0xB730, symBinAddr: 0x10000BE70, symSize: 0x3C }
  - { offset: 0x5C305, size: 0x8, addend: 0x0, symName: __ZN5Eigen8internal16binary_evaluatorINS_13CwiseBinaryOpINS0_20scalar_difference_opIddEEKNS_6MatrixIdLin1ELi1ELi0ELin1ELi1EEES7_EENS0_10IndexBasedES9_ddE4DataC1ERKS8_, symObjAddr: 0xB6A4, symBinAddr: 0x10000BDE4, symSize: 0x8C }
  - { offset: 0x5C34E, size: 0x8, addend: 0x0, symName: __ZN5Eigen8internal14evaluator_baseINS_13CwiseBinaryOpINS0_20scalar_difference_opIddEEKNS_6MatrixIdLin1ELi1ELi0ELin1ELi1EEES7_EEEC2Ev, symObjAddr: 0xB690, symBinAddr: 0x10000BDD0, symSize: 0x14 }
  - { offset: 0x5C393, size: 0x8, addend: 0x0, symName: __ZNK5Eigen8internal16binary_evaluatorINS_13CwiseBinaryOpINS0_20scalar_difference_opIddEEKNS_12ArrayWrapperINS_6MatrixIdLin1ELi1ELi0ELin1ELi1EEEEEKNS_14CwiseNullaryOpINS0_18scalar_constant_opIdEEKNS_5ArrayIdLin1ELi1ELi0ELin1ELi1EEEEEEENS0_10IndexBasedESJ_ddE5coeffEl, symObjAddr: 0xB61C, symBinAddr: 0x10000BD5C, symSize: 0x74 }
  - { offset: 0x5C3CE, size: 0x8, addend: 0x0, symName: __ZNK5Eigen8internal15unary_evaluatorINS_12CwiseUnaryOpINS0_18scalar_opposite_opIdEEKNS_13CwiseBinaryOpINS0_20scalar_difference_opIddEEKNS_12ArrayWrapperINS_6MatrixIdLin1ELi1ELi0ELin1ELi1EEEEEKNS_14CwiseNullaryOpINS0_18scalar_constant_opIdEEKNS_5ArrayIdLin1ELi1ELi0ELin1ELi1EEEEEEEEENS0_10IndexBasedEdE5coeffEl, symObjAddr: 0xB5C0, symBinAddr: 0x10000BD00, symSize: 0x5C }
  - { offset: 0x5C409, size: 0x8, addend: 0x0, symName: __ZNK5Eigen8internal16binary_evaluatorINS_13CwiseBinaryOpINS0_17scalar_product_opIddEEKNS_12CwiseUnaryOpINS0_18scalar_opposite_opIdEEKNS2_INS0_20scalar_difference_opIddEEKNS_12ArrayWrapperINS_6MatrixIdLin1ELi1ELi0ELin1ELi1EEEEEKNS_14CwiseNullaryOpINS0_18scalar_constant_opIdEEKNS_5ArrayIdLin1ELi1ELi0ELin1ELi1EEEEEEEEESO_EENS0_10IndexBasedESS_ddE4Data4funcEv, symObjAddr: 0xB5AC, symBinAddr: 0x10000BCEC, symSize: 0x14 }
  - { offset: 0x5C47A, size: 0x8, addend: 0x0, symName: __ZN5Eigen8internal15unary_evaluatorINS_12CwiseUnaryOpINS0_13scalar_exp_opIdEEKNS_13CwiseBinaryOpINS0_17scalar_product_opIddEEKNS2_INS0_18scalar_opposite_opIdEEKNS5_INS0_20scalar_difference_opIddEEKNS_12ArrayWrapperINS_6MatrixIdLin1ELi1ELi0ELin1ELi1EEEEEKNS_14CwiseNullaryOpINS0_18scalar_constant_opIdEEKNS_5ArrayIdLin1ELi1ELi0ELin1ELi1EEEEEEEEESQ_EEEENS0_10IndexBasedEdEC2ERKSV_, symObjAddr: 0xB560, symBinAddr: 0x10000BCA0, symSize: 0x4C }
  - { offset: 0x5C4D1, size: 0x8, addend: 0x0, symName: __ZN5Eigen8internal15unary_evaluatorINS_12CwiseUnaryOpINS0_13scalar_sin_opIdEEKNS_12ArrayWrapperINS_6MatrixIdLin1ELi1ELi0ELin1ELi1EEEEEEENS0_10IndexBasedEdEC2ERKSA_, symObjAddr: 0xB514, symBinAddr: 0x10000BC54, symSize: 0x4C }
  - { offset: 0x5C500, size: 0x8, addend: 0x0, symName: __ZNK5Eigen8internal13scalar_sum_opIddEclERKdS4_, symObjAddr: 0xB4E4, symBinAddr: 0x10000BC24, symSize: 0x30 }
  - { offset: 0x5C54A, size: 0x8, addend: 0x0, symName: __ZNK5Eigen8internal16binary_evaluatorINS_13CwiseBinaryOpINS0_17scalar_product_opIddEEKNS_14CwiseNullaryOpINS0_18scalar_constant_opIdEEKNS_5ArrayIdLin1ELi1ELi0ELin1ELi1EEEEEKNS2_INS0_13scalar_sum_opIddEEKNS2_IS4_SC_KNS_12ArrayWrapperINS_6MatrixIdLin1ELi1ELi0ELin1ELi1EEEEEEESL_EEEENS0_10IndexBasedESP_ddE5coeffEl, symObjAddr: 0xB468, symBinAddr: 0x10000BBA8, symSize: 0x7C }
  - { offset: 0x5C585, size: 0x8, addend: 0x0, symName: __ZNK5Eigen8internal17scalar_product_opIddE8packetOpI13__Float64x2_tEET_RKS5_S7_, symObjAddr: 0xB438, symBinAddr: 0x10000BB78, symSize: 0x30 }
  - { offset: 0x5C5D8, size: 0x8, addend: 0x0, symName: __ZNK5Eigen8internal16binary_evaluatorINS_13CwiseBinaryOpINS0_13scalar_sum_opIddEEKNS2_INS0_17scalar_product_opIddEEKNS_14CwiseNullaryOpINS0_18scalar_constant_opIdEEKNS_5ArrayIdLin1ELi1ELi0ELin1ELi1EEEEEKNS_12ArrayWrapperINS_6MatrixIdLin1ELi1ELi0ELin1ELi1EEEEEEESL_EENS0_10IndexBasedESN_ddE6packetILi16E13__Float64x2_tEET0_l, symObjAddr: 0xB3BC, symBinAddr: 0x10000BAFC, symSize: 0x7C }
  - { offset: 0x5C626, size: 0x8, addend: 0x0, symName: __ZNK5Eigen8internal9evaluatorINS_14CwiseNullaryOpINS0_18scalar_constant_opIdEEKNS_5ArrayIdLin1ELi1ELi0ELin1ELi1EEEEEE6packetILi16E13__Float64x2_tlEET0_T1_, symObjAddr: 0xB384, symBinAddr: 0x10000BAC4, symSize: 0x38 }
  - { offset: 0x5C67D, size: 0x8, addend: 0x0, symName: __ZNK5Eigen8internal16binary_evaluatorINS_13CwiseBinaryOpINS0_17scalar_product_opIddEEKNS_14CwiseNullaryOpINS0_18scalar_constant_opIdEEKNS_5ArrayIdLin1ELi1ELi0ELin1ELi1EEEEEKNS2_INS0_13scalar_sum_opIddEEKNS2_IS4_SC_KNS_12ArrayWrapperINS_6MatrixIdLin1ELi1ELi0ELin1ELi1EEEEEEESL_EEEENS0_10IndexBasedESP_ddE4Data4funcEv, symObjAddr: 0xB370, symBinAddr: 0x10000BAB0, symSize: 0x14 }
  - { offset: 0x5C6CF, size: 0x8, addend: 0x0, symName: __ZN5Eigen8internal9evaluatorINS_13CwiseBinaryOpINS0_17scalar_product_opIddEEKNS_14CwiseNullaryOpINS0_18scalar_constant_opIdEEKNS_5ArrayIdLin1ELi1ELi0ELin1ELi1EEEEEKNS2_INS0_13scalar_sum_opIddEEKNS2_IS4_SC_KNS_12ArrayWrapperINS_6MatrixIdLin1ELi1ELi0ELin1ELi1EEEEEEESL_EEEEEC2ERKSO_, symObjAddr: 0xB348, symBinAddr: 0x10000BA88, symSize: 0x28 }
  - { offset: 0x5C725, size: 0x8, addend: 0x0, symName: __ZN5Eigen8internal9evaluatorINS_12ArrayWrapperINS_6MatrixIdLin1ELi1ELi0ELin1ELi1EEEEEEC2ERKS5_, symObjAddr: 0xB320, symBinAddr: 0x10000BA60, symSize: 0x28 }
  - { offset: 0x5C77C, size: 0x8, addend: 0x0, symName: __ZN5Eigen8internal16binary_evaluatorINS_13CwiseBinaryOpINS0_20scalar_difference_opIddEEKNS_6MatrixIdLin1ELi1ELi0ELin1ELi1EEES7_EENS0_10IndexBasedES9_ddEC2ERKS8_, symObjAddr: 0xB2D4, symBinAddr: 0x10000BA14, symSize: 0x4C }
  - { offset: 0x5C7AB, size: 0x8, addend: 0x0, symName: __ZNK5Eigen8internal13scalar_exp_opIdEclERKd, symObjAddr: 0xB298, symBinAddr: 0x10000B9D8, symSize: 0x3C }
  - { offset: 0x5C80A, size: 0x8, addend: 0x0, symName: __ZNK5Eigen8internal16binary_evaluatorINS_13CwiseBinaryOpINS0_17scalar_product_opIddEEKNS_12CwiseUnaryOpINS0_18scalar_opposite_opIdEEKNS2_INS0_20scalar_difference_opIddEEKNS_12ArrayWrapperINS_6MatrixIdLin1ELi1ELi0ELin1ELi1EEEEEKNS_14CwiseNullaryOpINS0_18scalar_constant_opIdEEKNS_5ArrayIdLin1ELi1ELi0ELin1ELi1EEEEEEEEESO_EENS0_10IndexBasedESS_ddE5coeffEl, symObjAddr: 0xB21C, symBinAddr: 0x10000B95C, symSize: 0x7C }
  - { offset: 0x5C845, size: 0x8, addend: 0x0, symName: __ZNK5Eigen8internal15unary_evaluatorINS_12CwiseUnaryOpINS0_13scalar_exp_opIdEEKNS_13CwiseBinaryOpINS0_17scalar_product_opIddEEKNS2_INS0_18scalar_opposite_opIdEEKNS5_INS0_20scalar_difference_opIddEEKNS_12ArrayWrapperINS_6MatrixIdLin1ELi1ELi0ELin1ELi1EEEEEKNS_14CwiseNullaryOpINS0_18scalar_constant_opIdEEKNS_5ArrayIdLin1ELi1ELi0ELin1ELi1EEEEEEEEESQ_EEEENS0_10IndexBasedEdE4Data4funcEv, symObjAddr: 0xB208, symBinAddr: 0x10000B948, symSize: 0x14 }
  - { offset: 0x5C86F, size: 0x8, addend: 0x0, symName: __ZNK5Eigen8internal13scalar_sin_opIdEclERKd, symObjAddr: 0xB1CC, symBinAddr: 0x10000B90C, symSize: 0x3C }
  - { offset: 0x5C8CE, size: 0x8, addend: 0x0, symName: __ZNK5Eigen8internal22evaluator_wrapper_baseINS_12ArrayWrapperINS_6MatrixIdLin1ELi1ELi0ELin1ELi1EEEEEE5coeffEl, symObjAddr: 0xB1A8, symBinAddr: 0x10000B8E8, symSize: 0x24 }
  - { offset: 0x5C909, size: 0x8, addend: 0x0, symName: __ZNK5Eigen8internal15unary_evaluatorINS_12CwiseUnaryOpINS0_13scalar_sin_opIdEEKNS_12ArrayWrapperINS_6MatrixIdLin1ELi1ELi0ELin1ELi1EEEEEEENS0_10IndexBasedEdE4Data4funcEv, symObjAddr: 0xB194, symBinAddr: 0x10000B8D4, symSize: 0x14 }
  - { offset: 0x5C95A, size: 0x8, addend: 0x0, symName: __ZN5Eigen8internal9evaluatorINS_12CwiseUnaryOpINS0_13scalar_exp_opIdEEKNS_13CwiseBinaryOpINS0_17scalar_product_opIddEEKNS2_INS0_18scalar_opposite_opIdEEKNS5_INS0_20scalar_difference_opIddEEKNS_12ArrayWrapperINS_6MatrixIdLin1ELi1ELi0ELin1ELi1EEEEEKNS_14CwiseNullaryOpINS0_18scalar_constant_opIdEEKNS_5ArrayIdLin1ELi1ELi0ELin1ELi1EEEEEEEEESQ_EEEEEC2ERKSV_, symObjAddr: 0xB16C, symBinAddr: 0x10000B8AC, symSize: 0x28 }
  - { offset: 0x5C9B0, size: 0x8, addend: 0x0, symName: __ZN5Eigen8internal9evaluatorINS_12CwiseUnaryOpINS0_13scalar_sin_opIdEEKNS_12ArrayWrapperINS_6MatrixIdLin1ELi1ELi0ELin1ELi1EEEEEEEEC2ERKSA_, symObjAddr: 0xB144, symBinAddr: 0x10000B884, symSize: 0x28 }
  - { offset: 0x5C9EA, size: 0x8, addend: 0x0, symName: __ZNK5Eigen8internal17linspaced_op_implIdLb0EEclIlEEKdT_, symObjAddr: 0xB08C, symBinAddr: 0x10000B7CC, symSize: 0xB8 }
  - { offset: 0x5CA2D, size: 0x8, addend: 0x0, symName: __ZNK5Eigen8internal16binary_evaluatorINS_13CwiseBinaryOpINS0_13scalar_sum_opIddEEKNS_12ArrayWrapperINS_6MatrixIdLin1ELi1ELi0ELin1ELi1EEEEEKNS2_INS0_17scalar_product_opIddEEKNS_14CwiseNullaryOpINS0_18scalar_constant_opIdEEKNS_5ArrayIdLin1ELi1ELi0ELin1ELi1EEEEEKNS2_IS4_KNS2_ISB_SJ_S9_EESL_EEEEEENS0_10IndexBasedESR_ddE5coeffEl, symObjAddr: 0xB018, symBinAddr: 0x10000B758, symSize: 0x74 }
  - { offset: 0x5CA68, size: 0x8, addend: 0x0, symName: __ZNK5Eigen8internal13scalar_sum_opIddE8packetOpI13__Float64x2_tEET_RKS5_S7_, symObjAddr: 0xAFE8, symBinAddr: 0x10000B728, symSize: 0x30 }
  - { offset: 0x5CABB, size: 0x8, addend: 0x0, symName: __ZNK5Eigen8internal16binary_evaluatorINS_13CwiseBinaryOpINS0_17scalar_product_opIddEEKNS_14CwiseNullaryOpINS0_18scalar_constant_opIdEEKNS_5ArrayIdLin1ELi1ELi0ELin1ELi1EEEEEKNS2_INS0_13scalar_sum_opIddEEKNS2_IS4_SC_KNS_12ArrayWrapperINS_6MatrixIdLin1ELi1ELi0ELin1ELi1EEEEEEESL_EEEENS0_10IndexBasedESP_ddE6packetILi16E13__Float64x2_tEET0_l, symObjAddr: 0xAF6C, symBinAddr: 0x10000B6AC, symSize: 0x7C }
  - { offset: 0x5CB09, size: 0x8, addend: 0x0, symName: __ZNK5Eigen8internal22evaluator_wrapper_baseINS_12ArrayWrapperINS_6MatrixIdLin1ELi1ELi0ELin1ELi1EEEEEE6packetILi16E13__Float64x2_tEET0_l, symObjAddr: 0xAF40, symBinAddr: 0x10000B680, symSize: 0x2C }
  - { offset: 0x5CB57, size: 0x8, addend: 0x0, symName: __ZNK5Eigen8internal16binary_evaluatorINS_13CwiseBinaryOpINS0_13scalar_sum_opIddEEKNS_12ArrayWrapperINS_6MatrixIdLin1ELi1ELi0ELin1ELi1EEEEEKNS2_INS0_17scalar_product_opIddEEKNS_14CwiseNullaryOpINS0_18scalar_constant_opIdEEKNS_5ArrayIdLin1ELi1ELi0ELin1ELi1EEEEEKNS2_IS4_KNS2_ISB_SJ_S9_EESL_EEEEEENS0_10IndexBasedESR_ddE4Data4funcEv, symObjAddr: 0xAF2C, symBinAddr: 0x10000B66C, symSize: 0x14 }
  - { offset: 0x5CBA8, size: 0x8, addend: 0x0, symName: __ZN5Eigen8internal9evaluatorIKNS_13CwiseBinaryOpINS0_17scalar_product_opIddEEKNS_14CwiseNullaryOpINS0_18scalar_constant_opIdEEKNS_5ArrayIdLin1ELi1ELi0ELin1ELi1EEEEEKNS2_INS0_13scalar_sum_opIddEEKNS2_IS4_SC_KNS_12ArrayWrapperINS_6MatrixIdLin1ELi1ELi0ELin1ELi1EEEEEEESL_EEEEEC1ERSP_, symObjAddr: 0xAF04, symBinAddr: 0x10000B644, symSize: 0x28 }
  - { offset: 0x5CBFE, size: 0x8, addend: 0x0, symName: __ZN5Eigen8internal9evaluatorIKNS_12ArrayWrapperINS_6MatrixIdLin1ELi1ELi0ELin1ELi1EEEEEEC1ERS6_, symObjAddr: 0xAEDC, symBinAddr: 0x10000B61C, symSize: 0x28 }
  - { offset: 0x5CC2D, size: 0x8, addend: 0x0, symName: __ZNK5Eigen13CwiseBinaryOpINS_8internal13scalar_sum_opIddEEKNS_12ArrayWrapperINS_6MatrixIdLin1ELi1ELi0ELin1ELi1EEEEEKNS0_INS1_17scalar_product_opIddEEKNS_14CwiseNullaryOpINS1_18scalar_constant_opIdEEKNS_5ArrayIdLin1ELi1ELi0ELin1ELi1EEEEEKNS0_IS3_KNS0_ISA_SI_S8_EESK_EEEEE3rhsEv, symObjAddr: 0xAEC4, symBinAddr: 0x10000B604, symSize: 0x18 }
  - { offset: 0x5CC57, size: 0x8, addend: 0x0, symName: __ZNK5Eigen13CwiseBinaryOpINS_8internal13scalar_sum_opIddEEKNS_12ArrayWrapperINS_6MatrixIdLin1ELi1ELi0ELin1ELi1EEEEEKNS0_INS1_17scalar_product_opIddEEKNS_14CwiseNullaryOpINS1_18scalar_constant_opIdEEKNS_5ArrayIdLin1ELi1ELi0ELin1ELi1EEEEEKNS0_IS3_KNS0_ISA_SI_S8_EESK_EEEEE3lhsEv, symObjAddr: 0xAEB0, symBinAddr: 0x10000B5F0, symSize: 0x14 }
  - { offset: 0x5CC81, size: 0x8, addend: 0x0, symName: __ZNK5Eigen13CwiseBinaryOpINS_8internal13scalar_sum_opIddEEKNS_12ArrayWrapperINS_6MatrixIdLin1ELi1ELi0ELin1ELi1EEEEEKNS0_INS1_17scalar_product_opIddEEKNS_14CwiseNullaryOpINS1_18scalar_constant_opIdEEKNS_5ArrayIdLin1ELi1ELi0ELin1ELi1EEEEEKNS0_IS3_KNS0_ISA_SI_S8_EESK_EEEEE7functorEv, symObjAddr: 0xAE98, symBinAddr: 0x10000B5D8, symSize: 0x18 }
  - { offset: 0x5CCD3, size: 0x8, addend: 0x0, symName: __ZN5Eigen8internal9evaluatorINS_13CwiseBinaryOpINS0_20scalar_difference_opIddEEKNS_6MatrixIdLin1ELi1ELi0ELin1ELi1EEES7_EEEC1ERKS8_, symObjAddr: 0xAE70, symBinAddr: 0x10000B5B0, symSize: 0x28 }
  - { offset: 0x5CD1C, size: 0x8, addend: 0x0, symName: __ZN5Eigen8internal14evaluator_baseINS_12ArrayWrapperIKNS_13CwiseBinaryOpINS0_20scalar_difference_opIddEEKNS_6MatrixIdLin1ELi1ELi0ELin1ELi1EEES8_EEEEEC2Ev, symObjAddr: 0xAE5C, symBinAddr: 0x10000B59C, symSize: 0x14 }
  - { offset: 0x5CD42, size: 0x8, addend: 0x0, symName: __ZNK5Eigen8internal17scalar_product_opIddEclERKdS4_, symObjAddr: 0xAE2C, symBinAddr: 0x10000B56C, symSize: 0x30 }
  - { offset: 0x5CD8C, size: 0x8, addend: 0x0, symName: __ZNK5Eigen8internal15unary_evaluatorINS_12CwiseUnaryOpINS0_13scalar_exp_opIdEEKNS_13CwiseBinaryOpINS0_17scalar_product_opIddEEKNS2_INS0_18scalar_opposite_opIdEEKNS5_INS0_20scalar_difference_opIddEEKNS_12ArrayWrapperINS_6MatrixIdLin1ELi1ELi0ELin1ELi1EEEEEKNS_14CwiseNullaryOpINS0_18scalar_constant_opIdEEKNS_5ArrayIdLin1ELi1ELi0ELin1ELi1EEEEEEEEESQ_EEEENS0_10IndexBasedEdE5coeffEl, symObjAddr: 0xADD0, symBinAddr: 0x10000B510, symSize: 0x5C }
  - { offset: 0x5CDC7, size: 0x8, addend: 0x0, symName: __ZNK5Eigen8internal15unary_evaluatorINS_12CwiseUnaryOpINS0_13scalar_sin_opIdEEKNS_12ArrayWrapperINS_6MatrixIdLin1ELi1ELi0ELin1ELi1EEEEEEENS0_10IndexBasedEdE5coeffEl, symObjAddr: 0xAD80, symBinAddr: 0x10000B4C0, symSize: 0x50 }
  - { offset: 0x5CE02, size: 0x8, addend: 0x0, symName: __ZNK5Eigen8internal16binary_evaluatorINS_13CwiseBinaryOpINS0_17scalar_product_opIddEEKNS_12CwiseUnaryOpINS0_13scalar_sin_opIdEEKNS_12ArrayWrapperINS_6MatrixIdLin1ELi1ELi0ELin1ELi1EEEEEEEKNS5_INS0_13scalar_exp_opIdEEKNS2_IS4_KNS5_INS0_18scalar_opposite_opIdEEKNS2_INS0_20scalar_difference_opIddEESC_KNS_14CwiseNullaryOpINS0_18scalar_constant_opIdEEKNS_5ArrayIdLin1ELi1ELi0ELin1ELi1EEEEEEEEESU_EEEEEENS0_10IndexBasedES12_ddE4Data4funcEv, symObjAddr: 0xAD6C, symBinAddr: 0x10000B4AC, symSize: 0x14 }
  - { offset: 0x5CE53, size: 0x8, addend: 0x0, symName: __ZN5Eigen8internal9evaluatorIKNS_12CwiseUnaryOpINS0_13scalar_exp_opIdEEKNS_13CwiseBinaryOpINS0_17scalar_product_opIddEEKNS2_INS0_18scalar_opposite_opIdEEKNS5_INS0_20scalar_difference_opIddEEKNS_12ArrayWrapperINS_6MatrixIdLin1ELi1ELi0ELin1ELi1EEEEEKNS_14CwiseNullaryOpINS0_18scalar_constant_opIdEEKNS_5ArrayIdLin1ELi1ELi0ELin1ELi1EEEEEEEEESQ_EEEEEC1ERSW_, symObjAddr: 0xAD44, symBinAddr: 0x10000B484, symSize: 0x28 }
  - { offset: 0x5CEA9, size: 0x8, addend: 0x0, symName: __ZN5Eigen8internal9evaluatorIKNS_12CwiseUnaryOpINS0_13scalar_sin_opIdEEKNS_12ArrayWrapperINS_6MatrixIdLin1ELi1ELi0ELin1ELi1EEEEEEEEC1ERSB_, symObjAddr: 0xAD1C, symBinAddr: 0x10000B45C, symSize: 0x28 }
  - { offset: 0x5CED8, size: 0x8, addend: 0x0, symName: __ZNK5Eigen13CwiseBinaryOpINS_8internal17scalar_product_opIddEEKNS_12CwiseUnaryOpINS1_13scalar_sin_opIdEEKNS_12ArrayWrapperINS_6MatrixIdLin1ELi1ELi0ELin1ELi1EEEEEEEKNS4_INS1_13scalar_exp_opIdEEKNS0_IS3_KNS4_INS1_18scalar_opposite_opIdEEKNS0_INS1_20scalar_difference_opIddEESB_KNS_14CwiseNullaryOpINS1_18scalar_constant_opIdEEKNS_5ArrayIdLin1ELi1ELi0ELin1ELi1EEEEEEEEEST_EEEEE3rhsEv, symObjAddr: 0xAD04, symBinAddr: 0x10000B444, symSize: 0x18 }
  - { offset: 0x5CF02, size: 0x8, addend: 0x0, symName: __ZNK5Eigen13CwiseBinaryOpINS_8internal17scalar_product_opIddEEKNS_12CwiseUnaryOpINS1_13scalar_sin_opIdEEKNS_12ArrayWrapperINS_6MatrixIdLin1ELi1ELi0ELin1ELi1EEEEEEEKNS4_INS1_13scalar_exp_opIdEEKNS0_IS3_KNS4_INS1_18scalar_opposite_opIdEEKNS0_INS1_20scalar_difference_opIddEESB_KNS_14CwiseNullaryOpINS1_18scalar_constant_opIdEEKNS_5ArrayIdLin1ELi1ELi0ELin1ELi1EEEEEEEEEST_EEEEE3lhsEv, symObjAddr: 0xACEC, symBinAddr: 0x10000B42C, symSize: 0x18 }
  - { offset: 0x5CF2C, size: 0x8, addend: 0x0, symName: __ZNK5Eigen13CwiseBinaryOpINS_8internal17scalar_product_opIddEEKNS_12CwiseUnaryOpINS1_13scalar_sin_opIdEEKNS_12ArrayWrapperINS_6MatrixIdLin1ELi1ELi0ELin1ELi1EEEEEEEKNS4_INS1_13scalar_exp_opIdEEKNS0_IS3_KNS4_INS1_18scalar_opposite_opIdEEKNS0_INS1_20scalar_difference_opIddEESB_KNS_14CwiseNullaryOpINS1_18scalar_constant_opIdEEKNS_5ArrayIdLin1ELi1ELi0ELin1ELi1EEEEEEEEEST_EEEEE7functorEv, symObjAddr: 0xACD4, symBinAddr: 0x10000B414, symSize: 0x18 }
  - { offset: 0x5CF61, size: 0x8, addend: 0x0, symName: __ZNK5Eigen8internal12linspaced_opIdEclIlEEKdT_, symObjAddr: 0xACA8, symBinAddr: 0x10000B3E8, symSize: 0x2C }
  - { offset: 0x5CFA4, size: 0x8, addend: 0x0, symName: __ZN5Eigen8internal31generic_dense_assignment_kernelINS0_9evaluatorINS_6MatrixIdLin1ELi1ELi0ELin1ELi1EEEEENS2_INS_13CwiseBinaryOpINS0_13scalar_sum_opIddEEKNS_12ArrayWrapperIS4_EEKNS6_INS0_17scalar_product_opIddEEKNS_14CwiseNullaryOpINS0_18scalar_constant_opIdEEKNS_5ArrayIdLin1ELi1ELi0ELin1ELi1EEEEEKNS6_IS8_KNS6_ISD_SL_SB_EESN_EEEEEEEENS0_9assign_opIddEELi0EE11assignCoeffEl, symObjAddr: 0xAC3C, symBinAddr: 0x10000B37C, symSize: 0x6C }
  - { offset: 0x5CFDF, size: 0x8, addend: 0x0, symName: __ZNK5Eigen8internal16binary_evaluatorINS_13CwiseBinaryOpINS0_13scalar_sum_opIddEEKNS_12ArrayWrapperINS_6MatrixIdLin1ELi1ELi0ELin1ELi1EEEEEKNS2_INS0_17scalar_product_opIddEEKNS_14CwiseNullaryOpINS0_18scalar_constant_opIdEEKNS_5ArrayIdLin1ELi1ELi0ELin1ELi1EEEEEKNS2_IS4_KNS2_ISB_SJ_S9_EESL_EEEEEENS0_10IndexBasedESR_ddE6packetILi16E13__Float64x2_tEET0_l, symObjAddr: 0xABC0, symBinAddr: 0x10000B300, symSize: 0x7C }
  - { offset: 0x5D055, size: 0x8, addend: 0x0, symName: __ZN5Eigen8internal16binary_evaluatorINS_13CwiseBinaryOpINS0_13scalar_sum_opIddEEKNS_12ArrayWrapperINS_6MatrixIdLin1ELi1ELi0ELin1ELi1EEEEEKNS2_INS0_17scalar_product_opIddEEKNS_14CwiseNullaryOpINS0_18scalar_constant_opIdEEKNS_5ArrayIdLin1ELi1ELi0ELin1ELi1EEEEEKNS2_IS4_KNS2_ISB_SJ_S9_EESL_EEEEEENS0_10IndexBasedESR_ddE4DataC1ERKSQ_, symObjAddr: 0xAB34, symBinAddr: 0x10000B274, symSize: 0x8C }
  - { offset: 0x5D09E, size: 0x8, addend: 0x0, symName: __ZN5Eigen8internal14evaluator_baseINS_13CwiseBinaryOpINS0_13scalar_sum_opIddEEKNS_12ArrayWrapperINS_6MatrixIdLin1ELi1ELi0ELin1ELi1EEEEEKNS2_INS0_17scalar_product_opIddEEKNS_14CwiseNullaryOpINS0_18scalar_constant_opIdEEKNS_5ArrayIdLin1ELi1ELi0ELin1ELi1EEEEEKNS2_IS4_KNS2_ISB_SJ_S9_EESL_EEEEEEEC2Ev, symObjAddr: 0xAB20, symBinAddr: 0x10000B260, symSize: 0x14 }
  - { offset: 0x5D14D, size: 0x8, addend: 0x0, symName: __ZN5Eigen8internal14evaluator_baseINS_5BlockINS_6MatrixIdLin1ELin1ELi0ELin1ELin1EEELin1ELi1ELb1EEEEC2Ev, symObjAddr: 0xAB0C, symBinAddr: 0x10000B24C, symSize: 0x14 }
  - { offset: 0x5D173, size: 0x8, addend: 0x0, symName: __ZNK5Eigen8internal15BlockImpl_denseINS_6MatrixIdLin1ELin1ELi0ELin1ELin1EEELin1ELi1ELb1ELb1EE11outerStrideEv, symObjAddr: 0xAAEC, symBinAddr: 0x10000B22C, symSize: 0x20 }
  - { offset: 0x5D19D, size: 0x8, addend: 0x0, symName: __ZNK5Eigen8internal15BlockImpl_denseINS_6MatrixIdLin1ELin1ELi0ELin1ELin1EEELin1ELi1ELb1ELb1EE11innerStrideEv, symObjAddr: 0xAACC, symBinAddr: 0x10000B20C, symSize: 0x20 }
  - { offset: 0x5D1C7, size: 0x8, addend: 0x0, symName: __ZNK5Eigen9EigenBaseINS_5BlockINS_6MatrixIdLin1ELin1ELi0ELin1ELin1EEELin1ELi1ELb1EEEE7derivedEv, symObjAddr: 0xAAB8, symBinAddr: 0x10000B1F8, symSize: 0x14 }
  - { offset: 0x5D219, size: 0x8, addend: 0x0, symName: __ZN5Eigen8internal22evaluator_wrapper_baseINS_12ArrayWrapperIKNS_13CwiseBinaryOpINS0_20scalar_difference_opIddEEKNS_6MatrixIdLin1ELi1ELi0ELin1ELi1EEES8_EEEEEC2ERSA_, symObjAddr: 0xAA6C, symBinAddr: 0x10000B1AC, symSize: 0x4C }
  - { offset: 0x5D248, size: 0x8, addend: 0x0, symName: __ZNK5Eigen12ArrayWrapperIKNS_13CwiseBinaryOpINS_8internal20scalar_difference_opIddEEKNS_6MatrixIdLin1ELi1ELi0ELin1ELi1EEES7_EEE16nestedExpressionEv, symObjAddr: 0xAA58, symBinAddr: 0x10000B198, symSize: 0x14 }
  - { offset: 0x5D272, size: 0x8, addend: 0x0, symName: __ZN5Eigen8internal31generic_dense_assignment_kernelINS0_9evaluatorINS_6MatrixIdLin1ELi1ELi0ELin1ELi1EEEEES5_NS0_9assign_opIddEELi0EE11assignCoeffEl, symObjAddr: 0xA9F8, symBinAddr: 0x10000B138, symSize: 0x60 }
  - { offset: 0x5D2AD, size: 0x8, addend: 0x0, symName: __ZNK5Eigen8internal16binary_evaluatorINS_13CwiseBinaryOpINS0_17scalar_product_opIddEEKNS_12CwiseUnaryOpINS0_13scalar_sin_opIdEEKNS_12ArrayWrapperINS_6MatrixIdLin1ELi1ELi0ELin1ELi1EEEEEEEKNS5_INS0_13scalar_exp_opIdEEKNS2_IS4_KNS5_INS0_18scalar_opposite_opIdEEKNS2_INS0_20scalar_difference_opIddEESC_KNS_14CwiseNullaryOpINS0_18scalar_constant_opIdEEKNS_5ArrayIdLin1ELi1ELi0ELin1ELi1EEEEEEEEESU_EEEEEENS0_10IndexBasedES12_ddE5coeffEl, symObjAddr: 0xA97C, symBinAddr: 0x10000B0BC, symSize: 0x7C }
  - { offset: 0x5D310, size: 0x8, addend: 0x0, symName: __ZN5Eigen8internal16binary_evaluatorINS_13CwiseBinaryOpINS0_17scalar_product_opIddEEKNS_12CwiseUnaryOpINS0_13scalar_sin_opIdEEKNS_12ArrayWrapperINS_6MatrixIdLin1ELi1ELi0ELin1ELi1EEEEEEEKNS5_INS0_13scalar_exp_opIdEEKNS2_IS4_KNS5_INS0_18scalar_opposite_opIdEEKNS2_INS0_20scalar_difference_opIddEESC_KNS_14CwiseNullaryOpINS0_18scalar_constant_opIdEEKNS_5ArrayIdLin1ELi1ELi0ELin1ELi1EEEEEEEEESU_EEEEEENS0_10IndexBasedES12_ddE4DataC1ERKS11_, symObjAddr: 0xA8F0, symBinAddr: 0x10000B030, symSize: 0x8C }
  - { offset: 0x5D359, size: 0x8, addend: 0x0, symName: __ZN5Eigen8internal14evaluator_baseINS_13CwiseBinaryOpINS0_17scalar_product_opIddEEKNS_12CwiseUnaryOpINS0_13scalar_sin_opIdEEKNS_12ArrayWrapperINS_6MatrixIdLin1ELi1ELi0ELin1ELi1EEEEEEEKNS5_INS0_13scalar_exp_opIdEEKNS2_IS4_KNS5_INS0_18scalar_opposite_opIdEEKNS2_INS0_20scalar_difference_opIddEESC_KNS_14CwiseNullaryOpINS0_18scalar_constant_opIdEEKNS_5ArrayIdLin1ELi1ELi0ELin1ELi1EEEEEEEEESU_EEEEEEEC2Ev, symObjAddr: 0xA8DC, symBinAddr: 0x10000B01C, symSize: 0x14 }
  - { offset: 0x5D37B, size: 0x8, addend: 0x0, symName: __ZSt9__fill_a1IPddEvT_S1_RKT0_, symObjAddr: 0xA87C, symBinAddr: 0x10000AFBC, symSize: 0x60 }
  - { offset: 0x5D417, size: 0x8, addend: 0x0, symName: __ZNK5Eigen8internal15nullary_wrapperIdNS0_12linspaced_opIdEELb0ELb1ELb0EEclIlEEdRKS3_T_, symObjAddr: 0xA84C, symBinAddr: 0x10000AF8C, symSize: 0x30 }
  - { offset: 0x5D468, size: 0x8, addend: 0x0, symName: __ZN5Eigen8internal31unaligned_dense_assignment_loopILb0EE3runINS0_31generic_dense_assignment_kernelINS0_9evaluatorINS_6MatrixIdLin1ELi1ELi0ELin1ELi1EEEEENS5_INS_13CwiseBinaryOpINS0_13scalar_sum_opIddEEKNS_12ArrayWrapperIS7_EEKNS9_INS0_17scalar_product_opIddEEKNS_14CwiseNullaryOpINS0_18scalar_constant_opIdEEKNS_5ArrayIdLin1ELi1ELi0ELin1ELi1EEEEEKNS9_ISB_KNS9_ISG_SO_SE_EESQ_EEEEEEEENS0_9assign_opIddEELi0EEEEEvRT_ll, symObjAddr: 0xA7F4, symBinAddr: 0x10000AF34, symSize: 0x58 }
  - { offset: 0x5D4E5, size: 0x8, addend: 0x0, symName: __ZN5Eigen8internal31generic_dense_assignment_kernelINS0_9evaluatorINS_6MatrixIdLin1ELi1ELi0ELin1ELi1EEEEENS2_INS_13CwiseBinaryOpINS0_13scalar_sum_opIddEEKNS_12ArrayWrapperIS4_EEKNS6_INS0_17scalar_product_opIddEEKNS_14CwiseNullaryOpINS0_18scalar_constant_opIdEEKNS_5ArrayIdLin1ELi1ELi0ELin1ELi1EEEEEKNS6_IS8_KNS6_ISD_SL_SB_EESN_EEEEEEEENS0_9assign_opIddEELi0EE12assignPacketILi16ELi16E13__Float64x2_tEEvl, symObjAddr: 0xA788, symBinAddr: 0x10000AEC8, symSize: 0x6C }
  - { offset: 0x5D539, size: 0x8, addend: 0x0, symName: __ZN5Eigen8internal31unaligned_dense_assignment_loopILb1EE3runINS0_31generic_dense_assignment_kernelINS0_9evaluatorINS_6MatrixIdLin1ELi1ELi0ELin1ELi1EEEEENS5_INS_13CwiseBinaryOpINS0_13scalar_sum_opIddEEKNS_12ArrayWrapperIS7_EEKNS9_INS0_17scalar_product_opIddEEKNS_14CwiseNullaryOpINS0_18scalar_constant_opIdEEKNS_5ArrayIdLin1ELi1ELi0ELin1ELi1EEEEEKNS9_ISB_KNS9_ISG_SO_SE_EESQ_EEEEEEEENS0_9assign_opIddEELi0EEEEEvRT_ll, symObjAddr: 0xA76C, symBinAddr: 0x10000AEAC, symSize: 0x1C }
  - { offset: 0x5D57A, size: 0x8, addend: 0x0, symName: __ZNK5Eigen13CwiseBinaryOpINS_8internal13scalar_sum_opIddEEKNS_12ArrayWrapperINS_6MatrixIdLin1ELi1ELi0ELin1ELi1EEEEEKNS0_INS1_17scalar_product_opIddEEKNS_14CwiseNullaryOpINS1_18scalar_constant_opIdEEKNS_5ArrayIdLin1ELi1ELi0ELin1ELi1EEEEEKNS0_IS3_KNS0_ISA_SI_S8_EESK_EEEEE4colsEv, symObjAddr: 0xA750, symBinAddr: 0x10000AE90, symSize: 0x1C }
  - { offset: 0x5D5A4, size: 0x8, addend: 0x0, symName: __ZNK5Eigen13CwiseBinaryOpINS_8internal13scalar_sum_opIddEEKNS_12ArrayWrapperINS_6MatrixIdLin1ELi1ELi0ELin1ELi1EEEEEKNS0_INS1_17scalar_product_opIddEEKNS_14CwiseNullaryOpINS1_18scalar_constant_opIdEEKNS_5ArrayIdLin1ELi1ELi0ELin1ELi1EEEEEKNS0_IS3_KNS0_ISA_SI_S8_EESK_EEEEE4rowsEv, symObjAddr: 0xA730, symBinAddr: 0x10000AE70, symSize: 0x20 }
  - { offset: 0x5D5F6, size: 0x8, addend: 0x0, symName: __ZN5Eigen8internal16binary_evaluatorINS_13CwiseBinaryOpINS0_13scalar_sum_opIddEEKNS_12ArrayWrapperINS_6MatrixIdLin1ELi1ELi0ELin1ELi1EEEEEKNS2_INS0_17scalar_product_opIddEEKNS_14CwiseNullaryOpINS0_18scalar_constant_opIdEEKNS_5ArrayIdLin1ELi1ELi0ELin1ELi1EEEEEKNS2_IS4_KNS2_ISB_SJ_S9_EESL_EEEEEENS0_10IndexBasedESR_ddEC2ERKSQ_, symObjAddr: 0xA6E4, symBinAddr: 0x10000AE24, symSize: 0x4C }
  - { offset: 0x5D625, size: 0x8, addend: 0x0, symName: __ZNK5Eigen8internal9assign_opIddE12assignPacketILi16E13__Float64x2_tEEvPdRKT0_, symObjAddr: 0xA6A4, symBinAddr: 0x10000ADE4, symSize: 0x40 }
  - { offset: 0x5D6AE, size: 0x8, addend: 0x0, symName: __ZNK5Eigen8internal9evaluatorINS_15PlainObjectBaseINS_6MatrixIdLin1ELi1ELi0ELin1ELi1EEEEEE6packetILi0E13__Float64x2_tEET0_l, symObjAddr: 0xA660, symBinAddr: 0x10000ADA0, symSize: 0x44 }
  - { offset: 0x5D71E, size: 0x8, addend: 0x0, symName: __ZN5Eigen8internal17mapbase_evaluatorINS_5BlockINS_6MatrixIdLin1ELin1ELi0ELin1ELin1EEELin1ELi1ELb1EEENS3_IdLin1ELi1ELi0ELin1ELi1EEEE8coeffRefEl, symObjAddr: 0xA620, symBinAddr: 0x10000AD60, symSize: 0x40 }
  - { offset: 0x5D759, size: 0x8, addend: 0x0, symName: __ZN5Eigen8internal31generic_dense_assignment_kernelINS0_9evaluatorINS_5BlockINS_6MatrixIdLin1ELin1ELi0ELin1ELin1EEELin1ELi1ELb1EEEEENS2_INS4_IdLin1ELi1ELi0ELin1ELi1EEEEENS0_9assign_opIddEELi0EE11assignCoeffEl, symObjAddr: 0xA5C0, symBinAddr: 0x10000AD00, symSize: 0x60 }
  - { offset: 0x5D794, size: 0x8, addend: 0x0, symName: __ZN5Eigen7MapBaseINS_5BlockINS_6MatrixIdLin1ELin1ELi0ELin1ELin1EEELin1ELi1ELb1EEELi1EE4dataEv, symObjAddr: 0xA5A8, symBinAddr: 0x10000ACE8, symSize: 0x18 }
  - { offset: 0x5D7BE, size: 0x8, addend: 0x0, symName: __ZNK5Eigen7MapBaseINS_5BlockINS_6MatrixIdLin1ELin1ELi0ELin1ELin1EEELin1ELi1ELb1EEELi1EE4dataEv, symObjAddr: 0xA590, symBinAddr: 0x10000ACD0, symSize: 0x18 }
  - { offset: 0x5D810, size: 0x8, addend: 0x0, symName: __ZN5Eigen8internal17mapbase_evaluatorINS_5BlockINS_6MatrixIdLin1ELin1ELi0ELin1ELin1EEELin1ELi1ELb1EEENS3_IdLin1ELi1ELi0ELin1ELi1EEEEC2ERKS5_, symObjAddr: 0xA504, symBinAddr: 0x10000AC44, symSize: 0x8C }
  - { offset: 0x5D83F, size: 0x8, addend: 0x0, symName: __ZNK5Eigen9EigenBaseINS_5BlockINS_6MatrixIdLin1ELin1ELi0ELin1ELin1EEELin1ELi1ELb1EEEE4colsEv, symObjAddr: 0xA4E4, symBinAddr: 0x10000AC24, symSize: 0x20 }
  - { offset: 0x5D869, size: 0x8, addend: 0x0, symName: __ZNK5Eigen9EigenBaseINS_5BlockINS_6MatrixIdLin1ELin1ELi0ELin1ELin1EEELin1ELi1ELb1EEEE4rowsEv, symObjAddr: 0xA4C4, symBinAddr: 0x10000AC04, symSize: 0x20 }
  - { offset: 0x5D8BB, size: 0x8, addend: 0x0, symName: __ZN5Eigen8internal15unary_evaluatorINS_12ArrayWrapperIKNS_13CwiseBinaryOpINS0_20scalar_difference_opIddEEKNS_6MatrixIdLin1ELi1ELi0ELin1ELi1EEES8_EEEENS0_10IndexBasedEdEC2ERKSB_, symObjAddr: 0xA488, symBinAddr: 0x10000ABC8, symSize: 0x3C }
  - { offset: 0x5D8E6, size: 0x8, addend: 0x0, symName: __ZSt3maxIdERKT_S2_S2_, symObjAddr: 0xA44C, symBinAddr: 0x10000AB8C, symSize: 0x3C }
  - { offset: 0x5D92A, size: 0x8, addend: 0x0, symName: __ZN5Eigen8internal31unaligned_dense_assignment_loopILb0EE3runINS0_31generic_dense_assignment_kernelINS0_9evaluatorINS_6MatrixIdLin1ELi1ELi0ELin1ELi1EEEEES8_NS0_9assign_opIddEELi0EEEEEvRT_ll, symObjAddr: 0xA3F4, symBinAddr: 0x10000AB34, symSize: 0x58 }
  - { offset: 0x5D9A7, size: 0x8, addend: 0x0, symName: __ZN5Eigen8internal31generic_dense_assignment_kernelINS0_9evaluatorINS_6MatrixIdLin1ELi1ELi0ELin1ELi1EEEEES5_NS0_9assign_opIddEELi0EE12assignPacketILi16ELi16E13__Float64x2_tEEvl, symObjAddr: 0xA388, symBinAddr: 0x10000AAC8, symSize: 0x6C }
  - { offset: 0x5D9FB, size: 0x8, addend: 0x0, symName: __ZN5Eigen8internal31unaligned_dense_assignment_loopILb1EE3runINS0_31generic_dense_assignment_kernelINS0_9evaluatorINS_6MatrixIdLin1ELi1ELi0ELin1ELi1EEEEES8_NS0_9assign_opIddEELi0EEEEEvRT_ll, symObjAddr: 0xA36C, symBinAddr: 0x10000AAAC, symSize: 0x1C }
  - { offset: 0x5DA3C, size: 0x8, addend: 0x0, symName: __ZN5Eigen8internal31generic_dense_assignment_kernelINS0_9evaluatorINS_6MatrixIdLin1ELi1ELi0ELin1ELi1EEEEENS2_INS_13CwiseBinaryOpINS0_17scalar_product_opIddEEKNS_12CwiseUnaryOpINS0_13scalar_sin_opIdEEKNS_12ArrayWrapperIS4_EEEEKNS9_INS0_13scalar_exp_opIdEEKNS6_IS8_KNS9_INS0_18scalar_opposite_opIdEEKNS6_INS0_20scalar_difference_opIddEESE_KNS_14CwiseNullaryOpINS0_18scalar_constant_opIdEEKNS_5ArrayIdLin1ELi1ELi0ELin1ELi1EEEEEEEEESW_EEEEEEEENS0_9assign_opIddEELi0EE11assignCoeffEl, symObjAddr: 0xA300, symBinAddr: 0x10000AA40, symSize: 0x6C }
  - { offset: 0x5DA77, size: 0x8, addend: 0x0, symName: __ZNK5Eigen13CwiseBinaryOpINS_8internal17scalar_product_opIddEEKNS_12CwiseUnaryOpINS1_13scalar_sin_opIdEEKNS_12ArrayWrapperINS_6MatrixIdLin1ELi1ELi0ELin1ELi1EEEEEEEKNS4_INS1_13scalar_exp_opIdEEKNS0_IS3_KNS4_INS1_18scalar_opposite_opIdEEKNS0_INS1_20scalar_difference_opIddEESB_KNS_14CwiseNullaryOpINS1_18scalar_constant_opIdEEKNS_5ArrayIdLin1ELi1ELi0ELin1ELi1EEEEEEEEEST_EEEEE4colsEv, symObjAddr: 0xA2E0, symBinAddr: 0x10000AA20, symSize: 0x20 }
  - { offset: 0x5DAA1, size: 0x8, addend: 0x0, symName: __ZNK5Eigen13CwiseBinaryOpINS_8internal17scalar_product_opIddEEKNS_12CwiseUnaryOpINS1_13scalar_sin_opIdEEKNS_12ArrayWrapperINS_6MatrixIdLin1ELi1ELi0ELin1ELi1EEEEEEEKNS4_INS1_13scalar_exp_opIdEEKNS0_IS3_KNS4_INS1_18scalar_opposite_opIdEEKNS0_INS1_20scalar_difference_opIddEESB_KNS_14CwiseNullaryOpINS1_18scalar_constant_opIdEEKNS_5ArrayIdLin1ELi1ELi0ELin1ELi1EEEEEEEEEST_EEEEE4rowsEv, symObjAddr: 0xA2C0, symBinAddr: 0x10000AA00, symSize: 0x20 }
  - { offset: 0x5DAF3, size: 0x8, addend: 0x0, symName: __ZN5Eigen8internal16binary_evaluatorINS_13CwiseBinaryOpINS0_17scalar_product_opIddEEKNS_12CwiseUnaryOpINS0_13scalar_sin_opIdEEKNS_12ArrayWrapperINS_6MatrixIdLin1ELi1ELi0ELin1ELi1EEEEEEEKNS5_INS0_13scalar_exp_opIdEEKNS2_IS4_KNS5_INS0_18scalar_opposite_opIdEEKNS2_INS0_20scalar_difference_opIddEESC_KNS_14CwiseNullaryOpINS0_18scalar_constant_opIdEEKNS_5ArrayIdLin1ELi1ELi0ELin1ELi1EEEEEEEEESU_EEEEEENS0_10IndexBasedES12_ddEC2ERKS11_, symObjAddr: 0xA274, symBinAddr: 0x10000A9B4, symSize: 0x4C }
  - { offset: 0x5DB66, size: 0x8, addend: 0x0, symName: __ZNK5Eigen8internal9assign_opIddE11assignCoeffERdRKd, symObjAddr: 0xA248, symBinAddr: 0x10000A988, symSize: 0x2C }
  - { offset: 0x5DBBB, size: 0x8, addend: 0x0, symName: __ZNK5Eigen8internal9evaluatorINS_14CwiseNullaryOpINS0_12linspaced_opIdEENS_6MatrixIdLin1ELi1ELi0ELin1ELi1EEEEEE5coeffIlEEdT_, symObjAddr: 0xA214, symBinAddr: 0x10000A954, symSize: 0x34 }
  - { offset: 0x5DBFB, size: 0x8, addend: 0x0, symName: __ZN5Eigen8internal21dense_assignment_loopINS0_31generic_dense_assignment_kernelINS0_9evaluatorINS_6MatrixIdLin1ELi1ELi0ELin1ELi1EEEEENS3_INS_13CwiseBinaryOpINS0_13scalar_sum_opIddEEKNS_12ArrayWrapperIS5_EEKNS7_INS0_17scalar_product_opIddEEKNS_14CwiseNullaryOpINS0_18scalar_constant_opIdEEKNS_5ArrayIdLin1ELi1ELi0ELin1ELi1EEEEEKNS7_IS9_KNS7_ISE_SM_SC_EESO_EEEEEEEENS0_9assign_opIddEELi0EEELi3ELi0EE3runERSX_, symObjAddr: 0xA184, symBinAddr: 0x10000A8C4, symSize: 0x90 }
  - { offset: 0x5DCA9, size: 0x8, addend: 0x0, symName: __ZNK5Eigen8internal31generic_dense_assignment_kernelINS0_9evaluatorINS_6MatrixIdLin1ELi1ELi0ELin1ELi1EEEEENS2_INS_13CwiseBinaryOpINS0_13scalar_sum_opIddEEKNS_12ArrayWrapperIS4_EEKNS6_INS0_17scalar_product_opIddEEKNS_14CwiseNullaryOpINS0_18scalar_constant_opIdEEKNS_5ArrayIdLin1ELi1ELi0ELin1ELi1EEEEEKNS6_IS8_KNS6_ISD_SL_SB_EESN_EEEEEEEENS0_9assign_opIddEELi0EE4sizeEv, symObjAddr: 0xA164, symBinAddr: 0x10000A8A4, symSize: 0x20 }
  - { offset: 0x5DD25, size: 0x8, addend: 0x0, symName: __ZN5Eigen8internal31generic_dense_assignment_kernelINS0_9evaluatorINS_6MatrixIdLin1ELi1ELi0ELin1ELi1EEEEENS2_INS_13CwiseBinaryOpINS0_13scalar_sum_opIddEEKNS_12ArrayWrapperIS4_EEKNS6_INS0_17scalar_product_opIddEEKNS_14CwiseNullaryOpINS0_18scalar_constant_opIdEEKNS_5ArrayIdLin1ELi1ELi0ELin1ELi1EEEEEKNS6_IS8_KNS6_ISD_SL_SB_EESN_EEEEEEEENS0_9assign_opIddEELi0EEC1ERS5_RKST_RKSV_RS4_, symObjAddr: 0xA110, symBinAddr: 0x10000A850, symSize: 0x54 }
  - { offset: 0x5DD6B, size: 0x8, addend: 0x0, symName: __ZN5Eigen8internal17resize_if_allowedINS_6MatrixIdLin1ELi1ELi0ELin1ELi1EEENS_13CwiseBinaryOpINS0_13scalar_sum_opIddEEKNS_12ArrayWrapperIS3_EEKNS4_INS0_17scalar_product_opIddEEKNS_14CwiseNullaryOpINS0_18scalar_constant_opIdEEKNS_5ArrayIdLin1ELi1ELi0ELin1ELi1EEEEEKNS4_IS6_KNS4_ISB_SJ_S9_EESL_EEEEEEddEEvRT_RKT0_RKNS0_9assign_opIT1_T2_EE, symObjAddr: 0x9FF8, symBinAddr: 0x10000A738, symSize: 0x118 }
  - { offset: 0x5DE2E, size: 0x8, addend: 0x0, symName: __ZN5Eigen8internal14evaluator_baseINS_13CwiseBinaryOpINS0_17scalar_product_opIddEEKNS_14CwiseNullaryOpINS0_18scalar_constant_opIdEEKNS_5ArrayIdLin1ELi1ELi0ELin1ELi1EEEEEKNS_12ArrayWrapperINS_6MatrixIdLin1ELi1ELi0ELin1ELi1EEEEEEEED2Ev, symObjAddr: 0x9FE4, symBinAddr: 0x10000A724, symSize: 0x14 }
  - { offset: 0x5DE6E, size: 0x8, addend: 0x0, symName: __ZN5Eigen8internal14evaluator_baseINS_13CwiseBinaryOpINS0_13scalar_sum_opIddEEKNS2_INS0_17scalar_product_opIddEEKNS_14CwiseNullaryOpINS0_18scalar_constant_opIdEEKNS_5ArrayIdLin1ELi1ELi0ELin1ELi1EEEEEKNS_12ArrayWrapperINS_6MatrixIdLin1ELi1ELi0ELin1ELi1EEEEEEESL_EEED2Ev, symObjAddr: 0x9FD0, symBinAddr: 0x10000A710, symSize: 0x14 }
  - { offset: 0x5DEAE, size: 0x8, addend: 0x0, symName: __ZN5Eigen8internal14evaluator_baseINS_13CwiseBinaryOpINS0_17scalar_product_opIddEEKNS_14CwiseNullaryOpINS0_18scalar_constant_opIdEEKNS_5ArrayIdLin1ELi1ELi0ELin1ELi1EEEEEKNS2_INS0_13scalar_sum_opIddEEKNS2_IS4_SC_KNS_12ArrayWrapperINS_6MatrixIdLin1ELi1ELi0ELin1ELi1EEEEEEESL_EEEEED2Ev, symObjAddr: 0x9FBC, symBinAddr: 0x10000A6FC, symSize: 0x14 }
  - { offset: 0x5DEEE, size: 0x8, addend: 0x0, symName: __ZN5Eigen8internal14evaluator_baseINS_13CwiseBinaryOpINS0_13scalar_sum_opIddEEKNS_12ArrayWrapperINS_6MatrixIdLin1ELi1ELi0ELin1ELi1EEEEEKNS2_INS0_17scalar_product_opIddEEKNS_14CwiseNullaryOpINS0_18scalar_constant_opIdEEKNS_5ArrayIdLin1ELi1ELi0ELin1ELi1EEEEEKNS2_IS4_KNS2_ISB_SJ_S9_EESL_EEEEEEED2Ev, symObjAddr: 0x9FA8, symBinAddr: 0x10000A6E8, symSize: 0x14 }
  - { offset: 0x5DF3C, size: 0x8, addend: 0x0, symName: __ZN5Eigen8internal9evaluatorINS_13CwiseBinaryOpINS0_13scalar_sum_opIddEEKNS_12ArrayWrapperINS_6MatrixIdLin1ELi1ELi0ELin1ELi1EEEEEKNS2_INS0_17scalar_product_opIddEEKNS_14CwiseNullaryOpINS0_18scalar_constant_opIdEEKNS_5ArrayIdLin1ELi1ELi0ELin1ELi1EEEEEKNS2_IS4_KNS2_ISB_SJ_S9_EESL_EEEEEEEC1ERKSQ_, symObjAddr: 0x9F80, symBinAddr: 0x10000A6C0, symSize: 0x28 }
  - { offset: 0x5DF6B, size: 0x8, addend: 0x0, symName: __ZN5Eigen8internal31generic_dense_assignment_kernelINS0_9evaluatorINS_5BlockINS_6MatrixIdLin1ELin1ELi0ELin1ELin1EEELin1ELi1ELb1EEEEENS2_INS4_IdLin1ELi1ELi0ELin1ELi1EEEEENS0_9assign_opIddEELi0EE12assignPacketILi16ELi0E13__Float64x2_tEEvl, symObjAddr: 0x9F14, symBinAddr: 0x10000A654, symSize: 0x6C }
  - { offset: 0x5DFBF, size: 0x8, addend: 0x0, symName: __ZN5Eigen8internal31unaligned_dense_assignment_loopILb0EE3runINS0_31generic_dense_assignment_kernelINS0_9evaluatorINS_5BlockINS_6MatrixIdLin1ELin1ELi0ELin1ELin1EEELin1ELi1ELb1EEEEENS5_INS7_IdLin1ELi1ELi0ELin1ELi1EEEEENS0_9assign_opIddEELi0EEEEEvRT_ll, symObjAddr: 0x9EBC, symBinAddr: 0x10000A5FC, symSize: 0x58 }
  - { offset: 0x5E038, size: 0x8, addend: 0x0, symName: __ZN5Eigen8internal13first_alignedILi16EdlEET1_PKT0_S2_, symObjAddr: 0x9E4C, symBinAddr: 0x10000A58C, symSize: 0x70 }
  - { offset: 0x5E0EA, size: 0x8, addend: 0x0, symName: __ZNK5Eigen8internal31generic_dense_assignment_kernelINS0_9evaluatorINS_5BlockINS_6MatrixIdLin1ELin1ELi0ELin1ELin1EEELin1ELi1ELb1EEEEENS2_INS4_IdLin1ELi1ELi0ELin1ELi1EEEEENS0_9assign_opIddEELi0EE10dstDataPtrEv, symObjAddr: 0x9E2C, symBinAddr: 0x10000A56C, symSize: 0x20 }
  - { offset: 0x5E114, size: 0x8, addend: 0x0, symName: __ZNK5Eigen9EigenBaseINS_5BlockINS_6MatrixIdLin1ELin1ELi0ELin1ELin1EEELin1ELi1ELb1EEEE4sizeEv, symObjAddr: 0x9DF8, symBinAddr: 0x10000A538, symSize: 0x34 }
  - { offset: 0x5E181, size: 0x8, addend: 0x0, symName: __ZN5Eigen8internal15block_evaluatorINS_6MatrixIdLin1ELin1ELi0ELin1ELin1EEELin1ELi1ELb1ELb1EEC2ERKNS_5BlockIS3_Lin1ELi1ELb1EEE, symObjAddr: 0x9D64, symBinAddr: 0x10000A4A4, symSize: 0x94 }
  - { offset: 0x5E1C4, size: 0x8, addend: 0x0, symName: __ZN5Eigen9DenseBaseINS_5BlockINS_6MatrixIdLin1ELin1ELi0ELin1ELin1EEELin1ELi1ELb1EEEE6resizeEll, symObjAddr: 0x9CA4, symBinAddr: 0x10000A3E4, symSize: 0xC0 }
  - { offset: 0x5E22B, size: 0x8, addend: 0x0, symName: __ZNK5Eigen8internal30plainobjectbase_evaluator_dataIdLi0EE11outerStrideEv, symObjAddr: 0x9C90, symBinAddr: 0x10000A3D0, symSize: 0x14 }
  - { offset: 0x5E27C, size: 0x8, addend: 0x0, symName: __ZN5Eigen8internal9evaluatorINS_12ArrayWrapperIKNS_13CwiseBinaryOpINS0_20scalar_difference_opIddEEKNS_6MatrixIdLin1ELi1ELi0ELin1ELi1EEES8_EEEEEC2ERKSB_, symObjAddr: 0x9C68, symBinAddr: 0x10000A3A8, symSize: 0x28 }
  - { offset: 0x5E2FF, size: 0x8, addend: 0x0, symName: __ZN5Eigen8internal9evaluatorIKNS_6MatrixIdLin1ELi1ELi0ELin1ELi1EEEEC1ERS4_, symObjAddr: 0x9C40, symBinAddr: 0x10000A380, symSize: 0x28 }
  - { offset: 0x5E32E, size: 0x8, addend: 0x0, symName: __ZNK5Eigen12CwiseUnaryOpINS_8internal13scalar_abs_opIdEEKNS_6MatrixIdLin1ELi1ELi0ELin1ELi1EEEE16nestedExpressionEv, symObjAddr: 0x9C28, symBinAddr: 0x10000A368, symSize: 0x18 }
  - { offset: 0x5E358, size: 0x8, addend: 0x0, symName: __ZNK5Eigen12CwiseUnaryOpINS_8internal13scalar_abs_opIdEEKNS_6MatrixIdLin1ELi1ELi0ELin1ELi1EEEE7functorEv, symObjAddr: 0x9C10, symBinAddr: 0x10000A350, symSize: 0x18 }
  - { offset: 0x5E37E, size: 0x8, addend: 0x0, symName: __ZN5Eigen8internal21dense_assignment_loopINS0_31generic_dense_assignment_kernelINS0_9evaluatorINS_6MatrixIdLin1ELi1ELi0ELin1ELi1EEEEES6_NS0_9assign_opIddEELi0EEELi3ELi0EE3runERS9_, symObjAddr: 0x9B80, symBinAddr: 0x10000A2C0, symSize: 0x90 }
  - { offset: 0x5E42C, size: 0x8, addend: 0x0, symName: __ZNK5Eigen8internal31generic_dense_assignment_kernelINS0_9evaluatorINS_6MatrixIdLin1ELi1ELi0ELin1ELi1EEEEES5_NS0_9assign_opIddEELi0EE4sizeEv, symObjAddr: 0x9B60, symBinAddr: 0x10000A2A0, symSize: 0x20 }
  - { offset: 0x5E4A8, size: 0x8, addend: 0x0, symName: __ZN5Eigen8internal31generic_dense_assignment_kernelINS0_9evaluatorINS_6MatrixIdLin1ELi1ELi0ELin1ELi1EEEEES5_NS0_9assign_opIddEELi0EEC1ERS5_RKS5_RKS7_RS4_, symObjAddr: 0x9B0C, symBinAddr: 0x10000A24C, symSize: 0x54 }
  - { offset: 0x5E4EE, size: 0x8, addend: 0x0, symName: __ZN5Eigen8internal17resize_if_allowedINS_6MatrixIdLin1ELi1ELi0ELin1ELi1EEES3_ddEEvRT_RKT0_RKNS0_9assign_opIT1_T2_EE, symObjAddr: 0x99F4, symBinAddr: 0x10000A134, symSize: 0x118 }
  - { offset: 0x5E582, size: 0x8, addend: 0x0, symName: __ZN5Eigen8internal21dense_assignment_loopINS0_31generic_dense_assignment_kernelINS0_9evaluatorINS_6MatrixIdLin1ELi1ELi0ELin1ELi1EEEEENS3_INS_13CwiseBinaryOpINS0_17scalar_product_opIddEEKNS_12CwiseUnaryOpINS0_13scalar_sin_opIdEEKNS_12ArrayWrapperIS5_EEEEKNSA_INS0_13scalar_exp_opIdEEKNS7_IS9_KNSA_INS0_18scalar_opposite_opIdEEKNS7_INS0_20scalar_difference_opIddEESF_KNS_14CwiseNullaryOpINS0_18scalar_constant_opIdEEKNS_5ArrayIdLin1ELi1ELi0ELin1ELi1EEEEEEEEESX_EEEEEEEENS0_9assign_opIddEELi0EEELi1ELi0EE3runERS18_, symObjAddr: 0x999C, symBinAddr: 0x10000A0DC, symSize: 0x58 }
  - { offset: 0x5E5E5, size: 0x8, addend: 0x0, symName: __ZNK5Eigen8internal31generic_dense_assignment_kernelINS0_9evaluatorINS_6MatrixIdLin1ELi1ELi0ELin1ELi1EEEEENS2_INS_13CwiseBinaryOpINS0_17scalar_product_opIddEEKNS_12CwiseUnaryOpINS0_13scalar_sin_opIdEEKNS_12ArrayWrapperIS4_EEEEKNS9_INS0_13scalar_exp_opIdEEKNS6_IS8_KNS9_INS0_18scalar_opposite_opIdEEKNS6_INS0_20scalar_difference_opIddEESE_KNS_14CwiseNullaryOpINS0_18scalar_constant_opIdEEKNS_5ArrayIdLin1ELi1ELi0ELin1ELi1EEEEEEEEESW_EEEEEEEENS0_9assign_opIddEELi0EE4sizeEv, symObjAddr: 0x997C, symBinAddr: 0x10000A0BC, symSize: 0x20 }
  - { offset: 0x5E661, size: 0x8, addend: 0x0, symName: __ZN5Eigen8internal31generic_dense_assignment_kernelINS0_9evaluatorINS_6MatrixIdLin1ELi1ELi0ELin1ELi1EEEEENS2_INS_13CwiseBinaryOpINS0_17scalar_product_opIddEEKNS_12CwiseUnaryOpINS0_13scalar_sin_opIdEEKNS_12ArrayWrapperIS4_EEEEKNS9_INS0_13scalar_exp_opIdEEKNS6_IS8_KNS9_INS0_18scalar_opposite_opIdEEKNS6_INS0_20scalar_difference_opIddEESE_KNS_14CwiseNullaryOpINS0_18scalar_constant_opIdEEKNS_5ArrayIdLin1ELi1ELi0ELin1ELi1EEEEEEEEESW_EEEEEEEENS0_9assign_opIddEELi0EEC1ERS5_RKS14_RKS16_RS4_, symObjAddr: 0x9928, symBinAddr: 0x10000A068, symSize: 0x54 }
  - { offset: 0x5E6A7, size: 0x8, addend: 0x0, symName: __ZN5Eigen8internal17resize_if_allowedINS_6MatrixIdLin1ELi1ELi0ELin1ELi1EEENS_13CwiseBinaryOpINS0_17scalar_product_opIddEEKNS_12CwiseUnaryOpINS0_13scalar_sin_opIdEEKNS_12ArrayWrapperIS3_EEEEKNS7_INS0_13scalar_exp_opIdEEKNS4_IS6_KNS7_INS0_18scalar_opposite_opIdEEKNS4_INS0_20scalar_difference_opIddEESC_KNS_14CwiseNullaryOpINS0_18scalar_constant_opIdEEKNS_5ArrayIdLin1ELi1ELi0ELin1ELi1EEEEEEEEESU_EEEEEEddEEvRT_RKT0_RKNS0_9assign_opIT1_T2_EE, symObjAddr: 0x9810, symBinAddr: 0x100009F50, symSize: 0x118 }
  - { offset: 0x5E759, size: 0x8, addend: 0x0, symName: __ZN5Eigen8internal14evaluator_baseINS_14CwiseNullaryOpINS0_18scalar_constant_opIdEEKNS_5ArrayIdLin1ELi1ELi0ELin1ELi1EEEEEED2Ev, symObjAddr: 0x97FC, symBinAddr: 0x100009F3C, symSize: 0x14 }
  - { offset: 0x5E799, size: 0x8, addend: 0x0, symName: __ZN5Eigen8internal14evaluator_baseINS_13CwiseBinaryOpINS0_20scalar_difference_opIddEEKNS_12ArrayWrapperINS_6MatrixIdLin1ELi1ELi0ELin1ELi1EEEEEKNS_14CwiseNullaryOpINS0_18scalar_constant_opIdEEKNS_5ArrayIdLin1ELi1ELi0ELin1ELi1EEEEEEEED2Ev, symObjAddr: 0x97E8, symBinAddr: 0x100009F28, symSize: 0x14 }
  - { offset: 0x5E7D9, size: 0x8, addend: 0x0, symName: __ZN5Eigen8internal14evaluator_baseINS_12CwiseUnaryOpINS0_18scalar_opposite_opIdEEKNS_13CwiseBinaryOpINS0_20scalar_difference_opIddEEKNS_12ArrayWrapperINS_6MatrixIdLin1ELi1ELi0ELin1ELi1EEEEEKNS_14CwiseNullaryOpINS0_18scalar_constant_opIdEEKNS_5ArrayIdLin1ELi1ELi0ELin1ELi1EEEEEEEEEED2Ev, symObjAddr: 0x97D4, symBinAddr: 0x100009F14, symSize: 0x14 }
  - { offset: 0x5E819, size: 0x8, addend: 0x0, symName: __ZN5Eigen8internal14evaluator_baseINS_13CwiseBinaryOpINS0_17scalar_product_opIddEEKNS_12CwiseUnaryOpINS0_18scalar_opposite_opIdEEKNS2_INS0_20scalar_difference_opIddEEKNS_12ArrayWrapperINS_6MatrixIdLin1ELi1ELi0ELin1ELi1EEEEEKNS_14CwiseNullaryOpINS0_18scalar_constant_opIdEEKNS_5ArrayIdLin1ELi1ELi0ELin1ELi1EEEEEEEEESO_EEED2Ev, symObjAddr: 0x97C0, symBinAddr: 0x100009F00, symSize: 0x14 }
  - { offset: 0x5E859, size: 0x8, addend: 0x0, symName: __ZN5Eigen8internal14evaluator_baseINS_12CwiseUnaryOpINS0_13scalar_exp_opIdEEKNS_13CwiseBinaryOpINS0_17scalar_product_opIddEEKNS2_INS0_18scalar_opposite_opIdEEKNS5_INS0_20scalar_difference_opIddEEKNS_12ArrayWrapperINS_6MatrixIdLin1ELi1ELi0ELin1ELi1EEEEEKNS_14CwiseNullaryOpINS0_18scalar_constant_opIdEEKNS_5ArrayIdLin1ELi1ELi0ELin1ELi1EEEEEEEEESQ_EEEEED2Ev, symObjAddr: 0x97AC, symBinAddr: 0x100009EEC, symSize: 0x14 }
  - { offset: 0x5E899, size: 0x8, addend: 0x0, symName: __ZN5Eigen8internal14evaluator_baseINS_12ArrayWrapperINS_6MatrixIdLin1ELi1ELi0ELin1ELi1EEEEEED2Ev, symObjAddr: 0x9798, symBinAddr: 0x100009ED8, symSize: 0x14 }
  - { offset: 0x5E8D9, size: 0x8, addend: 0x0, symName: __ZN5Eigen8internal14evaluator_baseINS_12CwiseUnaryOpINS0_13scalar_sin_opIdEEKNS_12ArrayWrapperINS_6MatrixIdLin1ELi1ELi0ELin1ELi1EEEEEEEED2Ev, symObjAddr: 0x9784, symBinAddr: 0x100009EC4, symSize: 0x14 }
  - { offset: 0x5E919, size: 0x8, addend: 0x0, symName: __ZN5Eigen8internal14evaluator_baseINS_13CwiseBinaryOpINS0_17scalar_product_opIddEEKNS_12CwiseUnaryOpINS0_13scalar_sin_opIdEEKNS_12ArrayWrapperINS_6MatrixIdLin1ELi1ELi0ELin1ELi1EEEEEEEKNS5_INS0_13scalar_exp_opIdEEKNS2_IS4_KNS5_INS0_18scalar_opposite_opIdEEKNS2_INS0_20scalar_difference_opIddEESC_KNS_14CwiseNullaryOpINS0_18scalar_constant_opIdEEKNS_5ArrayIdLin1ELi1ELi0ELin1ELi1EEEEEEEEESU_EEEEEEED2Ev, symObjAddr: 0x9770, symBinAddr: 0x100009EB0, symSize: 0x14 }
  - { offset: 0x5E967, size: 0x8, addend: 0x0, symName: __ZN5Eigen8internal9evaluatorINS_13CwiseBinaryOpINS0_17scalar_product_opIddEEKNS_12CwiseUnaryOpINS0_13scalar_sin_opIdEEKNS_12ArrayWrapperINS_6MatrixIdLin1ELi1ELi0ELin1ELi1EEEEEEEKNS5_INS0_13scalar_exp_opIdEEKNS2_IS4_KNS5_INS0_18scalar_opposite_opIdEEKNS2_INS0_20scalar_difference_opIddEESC_KNS_14CwiseNullaryOpINS0_18scalar_constant_opIdEEKNS_5ArrayIdLin1ELi1ELi0ELin1ELi1EEEEEEEEESU_EEEEEEEC1ERKS11_, symObjAddr: 0x9748, symBinAddr: 0x100009E88, symSize: 0x28 }
  - { offset: 0x5EA04, size: 0x8, addend: 0x0, symName: __ZN5Eigen12DenseStorageIdLin1ELin1ELi1ELi0EE4dataEv, symObjAddr: 0x9730, symBinAddr: 0x100009E70, symSize: 0x18 }
  - { offset: 0x5EA2E, size: 0x8, addend: 0x0, symName: __ZN5Eigen8internal31generic_dense_assignment_kernelINS0_9evaluatorINS_6MatrixIdLin1ELi1ELi0ELin1ELi1EEEEENS2_INS_14CwiseNullaryOpINS0_12linspaced_opIdEES4_EEEENS0_9assign_opIddEELi0EE11assignCoeffEl, symObjAddr: 0x96C4, symBinAddr: 0x100009E04, symSize: 0x6C }
  - { offset: 0x5EA83, size: 0x8, addend: 0x0, symName: __ZN5Eigen8internal14evaluator_baseINS_14CwiseNullaryOpINS0_12linspaced_opIdEENS_6MatrixIdLin1ELi1ELi0ELin1ELi1EEEEEEC2Ev, symObjAddr: 0x96B0, symBinAddr: 0x100009DF0, symSize: 0x14 }
  - { offset: 0x5EAA9, size: 0x8, addend: 0x0, symName: __ZNK5Eigen14CwiseNullaryOpINS_8internal12linspaced_opIdEENS_6MatrixIdLin1ELi1ELi0ELin1ELi1EEEE7functorEv, symObjAddr: 0x9698, symBinAddr: 0x100009DD8, symSize: 0x18 }
  - { offset: 0x5EACF, size: 0x8, addend: 0x0, symName: __ZN5Eigen8internal26call_dense_assignment_loopINS_6MatrixIdLin1ELi1ELi0ELin1ELi1EEENS_13CwiseBinaryOpINS0_13scalar_sum_opIddEEKNS_12ArrayWrapperIS3_EEKNS4_INS0_17scalar_product_opIddEEKNS_14CwiseNullaryOpINS0_18scalar_constant_opIdEEKNS_5ArrayIdLin1ELi1ELi0ELin1ELi1EEEEEKNS4_IS6_KNS4_ISB_SJ_S9_EESL_EEEEEENS0_9assign_opIddEEEEvRT_RKT0_RKT1_, symObjAddr: 0x95E8, symBinAddr: 0x100009D28, symSize: 0xB0 }
  - { offset: 0x5EBB8, size: 0x8, addend: 0x0, symName: __ZN5Eigen8internal9evaluatorINS_13CwiseBinaryOpINS0_13scalar_sum_opIddEEKNS_12ArrayWrapperINS_6MatrixIdLin1ELi1ELi0ELin1ELi1EEEEEKNS2_INS0_17scalar_product_opIddEEKNS_14CwiseNullaryOpINS0_18scalar_constant_opIdEEKNS_5ArrayIdLin1ELi1ELi0ELin1ELi1EEEEEKNS2_IS4_KNS2_ISB_SJ_S9_EESL_EEEEEEED1Ev, symObjAddr: 0x95C8, symBinAddr: 0x100009D08, symSize: 0x20 }
  - { offset: 0x5EBFC, size: 0x8, addend: 0x0, symName: __ZN5Eigen8internal16binary_evaluatorINS_13CwiseBinaryOpINS0_13scalar_sum_opIddEEKNS_12ArrayWrapperINS_6MatrixIdLin1ELi1ELi0ELin1ELi1EEEEEKNS2_INS0_17scalar_product_opIddEEKNS_14CwiseNullaryOpINS0_18scalar_constant_opIdEEKNS_5ArrayIdLin1ELi1ELi0ELin1ELi1EEEEEKNS2_IS4_KNS2_ISB_SJ_S9_EESL_EEEEEENS0_10IndexBasedESR_ddED2Ev, symObjAddr: 0x95A0, symBinAddr: 0x100009CE0, symSize: 0x28 }
  - { offset: 0x5EC40, size: 0x8, addend: 0x0, symName: __ZN5Eigen8internal16binary_evaluatorINS_13CwiseBinaryOpINS0_13scalar_sum_opIddEEKNS_12ArrayWrapperINS_6MatrixIdLin1ELi1ELi0ELin1ELi1EEEEEKNS2_INS0_17scalar_product_opIddEEKNS_14CwiseNullaryOpINS0_18scalar_constant_opIdEEKNS_5ArrayIdLin1ELi1ELi0ELin1ELi1EEEEEKNS2_IS4_KNS2_ISB_SJ_S9_EESL_EEEEEENS0_10IndexBasedESR_ddE4DataD1Ev, symObjAddr: 0x9570, symBinAddr: 0x100009CB0, symSize: 0x30 }
  - { offset: 0x5EC83, size: 0x8, addend: 0x0, symName: __ZN5Eigen8internal9evaluatorIKNS_13CwiseBinaryOpINS0_17scalar_product_opIddEEKNS_14CwiseNullaryOpINS0_18scalar_constant_opIdEEKNS_5ArrayIdLin1ELi1ELi0ELin1ELi1EEEEEKNS2_INS0_13scalar_sum_opIddEEKNS2_IS4_SC_KNS_12ArrayWrapperINS_6MatrixIdLin1ELi1ELi0ELin1ELi1EEEEEEESL_EEEEED1Ev, symObjAddr: 0x9550, symBinAddr: 0x100009C90, symSize: 0x20 }
  - { offset: 0x5ECC7, size: 0x8, addend: 0x0, symName: __ZN5Eigen8internal9evaluatorINS_13CwiseBinaryOpINS0_17scalar_product_opIddEEKNS_14CwiseNullaryOpINS0_18scalar_constant_opIdEEKNS_5ArrayIdLin1ELi1ELi0ELin1ELi1EEEEEKNS2_INS0_13scalar_sum_opIddEEKNS2_IS4_SC_KNS_12ArrayWrapperINS_6MatrixIdLin1ELi1ELi0ELin1ELi1EEEEEEESL_EEEEED2Ev, symObjAddr: 0x9530, symBinAddr: 0x100009C70, symSize: 0x20 }
  - { offset: 0x5ED0B, size: 0x8, addend: 0x0, symName: __ZN5Eigen8internal16binary_evaluatorINS_13CwiseBinaryOpINS0_17scalar_product_opIddEEKNS_14CwiseNullaryOpINS0_18scalar_constant_opIdEEKNS_5ArrayIdLin1ELi1ELi0ELin1ELi1EEEEEKNS2_INS0_13scalar_sum_opIddEEKNS2_IS4_SC_KNS_12ArrayWrapperINS_6MatrixIdLin1ELi1ELi0ELin1ELi1EEEEEEESL_EEEENS0_10IndexBasedESP_ddED2Ev, symObjAddr: 0x9508, symBinAddr: 0x100009C48, symSize: 0x28 }
  - { offset: 0x5ED4F, size: 0x8, addend: 0x0, symName: __ZN5Eigen8internal16binary_evaluatorINS_13CwiseBinaryOpINS0_17scalar_product_opIddEEKNS_14CwiseNullaryOpINS0_18scalar_constant_opIdEEKNS_5ArrayIdLin1ELi1ELi0ELin1ELi1EEEEEKNS2_INS0_13scalar_sum_opIddEEKNS2_IS4_SC_KNS_12ArrayWrapperINS_6MatrixIdLin1ELi1ELi0ELin1ELi1EEEEEEESL_EEEENS0_10IndexBasedESP_ddE4DataD1Ev, symObjAddr: 0x94D8, symBinAddr: 0x100009C18, symSize: 0x30 }
  - { offset: 0x5ED92, size: 0x8, addend: 0x0, symName: __ZN5Eigen8internal9evaluatorIKNS_13CwiseBinaryOpINS0_13scalar_sum_opIddEEKNS2_INS0_17scalar_product_opIddEEKNS_14CwiseNullaryOpINS0_18scalar_constant_opIdEEKNS_5ArrayIdLin1ELi1ELi0ELin1ELi1EEEEEKNS_12ArrayWrapperINS_6MatrixIdLin1ELi1ELi0ELin1ELi1EEEEEEESL_EEED1Ev, symObjAddr: 0x94B8, symBinAddr: 0x100009BF8, symSize: 0x20 }
  - { offset: 0x5EDD6, size: 0x8, addend: 0x0, symName: __ZN5Eigen8internal9evaluatorINS_13CwiseBinaryOpINS0_13scalar_sum_opIddEEKNS2_INS0_17scalar_product_opIddEEKNS_14CwiseNullaryOpINS0_18scalar_constant_opIdEEKNS_5ArrayIdLin1ELi1ELi0ELin1ELi1EEEEEKNS_12ArrayWrapperINS_6MatrixIdLin1ELi1ELi0ELin1ELi1EEEEEEESL_EEED2Ev, symObjAddr: 0x9498, symBinAddr: 0x100009BD8, symSize: 0x20 }
  - { offset: 0x5EE1A, size: 0x8, addend: 0x0, symName: __ZN5Eigen8internal16binary_evaluatorINS_13CwiseBinaryOpINS0_13scalar_sum_opIddEEKNS2_INS0_17scalar_product_opIddEEKNS_14CwiseNullaryOpINS0_18scalar_constant_opIdEEKNS_5ArrayIdLin1ELi1ELi0ELin1ELi1EEEEEKNS_12ArrayWrapperINS_6MatrixIdLin1ELi1ELi0ELin1ELi1EEEEEEESL_EENS0_10IndexBasedESN_ddED2Ev, symObjAddr: 0x9470, symBinAddr: 0x100009BB0, symSize: 0x28 }
  - { offset: 0x5EE5E, size: 0x8, addend: 0x0, symName: __ZN5Eigen8internal16binary_evaluatorINS_13CwiseBinaryOpINS0_13scalar_sum_opIddEEKNS2_INS0_17scalar_product_opIddEEKNS_14CwiseNullaryOpINS0_18scalar_constant_opIdEEKNS_5ArrayIdLin1ELi1ELi0ELin1ELi1EEEEEKNS_12ArrayWrapperINS_6MatrixIdLin1ELi1ELi0ELin1ELi1EEEEEEESL_EENS0_10IndexBasedESN_ddE4DataD1Ev, symObjAddr: 0x9440, symBinAddr: 0x100009B80, symSize: 0x30 }
  - { offset: 0x5EEA1, size: 0x8, addend: 0x0, symName: __ZN5Eigen8internal9evaluatorIKNS_13CwiseBinaryOpINS0_17scalar_product_opIddEEKNS_14CwiseNullaryOpINS0_18scalar_constant_opIdEEKNS_5ArrayIdLin1ELi1ELi0ELin1ELi1EEEEEKNS_12ArrayWrapperINS_6MatrixIdLin1ELi1ELi0ELin1ELi1EEEEEEEED1Ev, symObjAddr: 0x9420, symBinAddr: 0x100009B60, symSize: 0x20 }
  - { offset: 0x5EEE5, size: 0x8, addend: 0x0, symName: __ZN5Eigen8internal9evaluatorINS_13CwiseBinaryOpINS0_17scalar_product_opIddEEKNS_14CwiseNullaryOpINS0_18scalar_constant_opIdEEKNS_5ArrayIdLin1ELi1ELi0ELin1ELi1EEEEEKNS_12ArrayWrapperINS_6MatrixIdLin1ELi1ELi0ELin1ELi1EEEEEEEED2Ev, symObjAddr: 0x9400, symBinAddr: 0x100009B40, symSize: 0x20 }
  - { offset: 0x5EF29, size: 0x8, addend: 0x0, symName: __ZN5Eigen8internal16binary_evaluatorINS_13CwiseBinaryOpINS0_17scalar_product_opIddEEKNS_14CwiseNullaryOpINS0_18scalar_constant_opIdEEKNS_5ArrayIdLin1ELi1ELi0ELin1ELi1EEEEEKNS_12ArrayWrapperINS_6MatrixIdLin1ELi1ELi0ELin1ELi1EEEEEEENS0_10IndexBasedESJ_ddED2Ev, symObjAddr: 0x93D8, symBinAddr: 0x100009B18, symSize: 0x28 }
  - { offset: 0x5EF6D, size: 0x8, addend: 0x0, symName: __ZN5Eigen8internal16binary_evaluatorINS_13CwiseBinaryOpINS0_17scalar_product_opIddEEKNS_14CwiseNullaryOpINS0_18scalar_constant_opIdEEKNS_5ArrayIdLin1ELi1ELi0ELin1ELi1EEEEEKNS_12ArrayWrapperINS_6MatrixIdLin1ELi1ELi0ELin1ELi1EEEEEEENS0_10IndexBasedESJ_ddE4DataD1Ev, symObjAddr: 0x93A8, symBinAddr: 0x100009AE8, symSize: 0x30 }
  - { offset: 0x5EF8F, size: 0x8, addend: 0x0, symName: __ZN5Eigen8internal18check_for_aliasingINS_6MatrixIdLin1ELi1ELi0ELin1ELi1EEENS_13CwiseBinaryOpINS0_13scalar_sum_opIddEEKNS_12ArrayWrapperIS3_EEKNS4_INS0_17scalar_product_opIddEEKNS_14CwiseNullaryOpINS0_18scalar_constant_opIdEEKNS_5ArrayIdLin1ELi1ELi0ELin1ELi1EEEEEKNS4_IS6_KNS4_ISB_SJ_S9_EESL_EEEEEEEEvRKT_RKT0_, symObjAddr: 0x9390, symBinAddr: 0x100009AD0, symSize: 0x18 }
  - { offset: 0x5EFDC, size: 0x8, addend: 0x0, symName: __ZN5Eigen8internal21dense_assignment_loopINS0_31generic_dense_assignment_kernelINS0_9evaluatorINS_5BlockINS_6MatrixIdLin1ELin1ELi0ELin1ELin1EEELin1ELi1ELb1EEEEENS3_INS5_IdLin1ELi1ELi0ELin1ELi1EEEEENS0_9assign_opIddEELi0EEELi3ELi0EE3runERSD_, symObjAddr: 0x92DC, symBinAddr: 0x100009A1C, symSize: 0xB4 }
  - { offset: 0x5F08A, size: 0x8, addend: 0x0, symName: __ZNK5Eigen8internal31generic_dense_assignment_kernelINS0_9evaluatorINS_5BlockINS_6MatrixIdLin1ELin1ELi0ELin1ELin1EEELin1ELi1ELb1EEEEENS2_INS4_IdLin1ELi1ELi0ELin1ELi1EEEEENS0_9assign_opIddEELi0EE4sizeEv, symObjAddr: 0x92BC, symBinAddr: 0x1000099FC, symSize: 0x20 }
  - { offset: 0x5F106, size: 0x8, addend: 0x0, symName: __ZN5Eigen8internal31generic_dense_assignment_kernelINS0_9evaluatorINS_5BlockINS_6MatrixIdLin1ELin1ELi0ELin1ELin1EEELin1ELi1ELb1EEEEENS2_INS4_IdLin1ELi1ELi0ELin1ELi1EEEEENS0_9assign_opIddEELi0EEC1ERS7_RKS9_RKSB_RS6_, symObjAddr: 0x9268, symBinAddr: 0x1000099A8, symSize: 0x54 }
  - { offset: 0x5F150, size: 0x8, addend: 0x0, symName: __ZNK5Eigen9EigenBaseINS_5BlockINS_6MatrixIdLin1ELin1ELi0ELin1ELin1EEELin1ELi1ELb1EEEE18const_cast_derivedEv, symObjAddr: 0x9254, symBinAddr: 0x100009994, symSize: 0x14 }
  - { offset: 0x5F194, size: 0x8, addend: 0x0, symName: __ZN5Eigen8internal14evaluator_baseINS_5BlockINS_6MatrixIdLin1ELin1ELi0ELin1ELin1EEELin1ELi1ELb1EEEED2Ev, symObjAddr: 0x9240, symBinAddr: 0x100009980, symSize: 0x14 }
  - { offset: 0x5F1E2, size: 0x8, addend: 0x0, symName: __ZN5Eigen8internal9evaluatorINS_5BlockINS_6MatrixIdLin1ELin1ELi0ELin1ELin1EEELin1ELi1ELb1EEEEC1ERKS5_, symObjAddr: 0x9218, symBinAddr: 0x100009958, symSize: 0x28 }
  - { offset: 0x5F20D, size: 0x8, addend: 0x0, symName: __ZN5Eigen8internal17resize_if_allowedINS_5BlockINS_6MatrixIdLin1ELin1ELi0ELin1ELin1EEELin1ELi1ELb1EEENS3_IdLin1ELi1ELi0ELin1ELi1EEEddEEvRT_RKT0_RKNS0_9assign_opIT1_T2_EE, symObjAddr: 0x9100, symBinAddr: 0x100009840, symSize: 0x118 }
  - { offset: 0x5F2A5, size: 0x8, addend: 0x0, symName: __ZNK5Eigen7MapBaseINS_5BlockINS_6MatrixIdLin1ELin1ELi0ELin1ELin1EEELin1ELi1ELb1EEELi0EE4colsEv, symObjAddr: 0x90E8, symBinAddr: 0x100009828, symSize: 0x18 }
  - { offset: 0x5F2CF, size: 0x8, addend: 0x0, symName: __ZNK5Eigen7MapBaseINS_5BlockINS_6MatrixIdLin1ELin1ELi0ELin1ELin1EEELin1ELi1ELb1EEELi0EE4rowsEv, symObjAddr: 0x90C8, symBinAddr: 0x100009808, symSize: 0x20 }
  - { offset: 0x5F2F9, size: 0x8, addend: 0x0, symName: __ZNK5Eigen7MapBaseINS_5BlockINS_6MatrixIdLin1ELin1ELi0ELin1ELin1EEELin1ELi1ELb1EEELi0EE11checkSanityIS4_EEvNS_8internal9enable_ifIXeqsrNS7_6traitsIT_EE9AlignmentLi0EEPvE4typeE, symObjAddr: 0x90B0, symBinAddr: 0x1000097F0, symSize: 0x18 }
  - { offset: 0x5F34F, size: 0x8, addend: 0x0, symName: __ZN5Eigen9DenseBaseINS_5BlockINS_6MatrixIdLin1ELin1ELi0ELin1ELin1EEELin1ELi1ELb1EEEEC2Ev, symObjAddr: 0x909C, symBinAddr: 0x1000097DC, symSize: 0x14 }
  - { offset: 0x5F375, size: 0x8, addend: 0x0, symName: __ZNK5Eigen8internal20scalar_difference_opIddEclERKdS4_, symObjAddr: 0x906C, symBinAddr: 0x1000097AC, symSize: 0x30 }
  - { offset: 0x5F3C1, size: 0x8, addend: 0x0, symName: __ZNK5Eigen8internal9evaluatorINS_15PlainObjectBaseINS_6MatrixIdLin1ELi1ELi0ELin1ELi1EEEEEE5coeffEll, symObjAddr: 0x901C, symBinAddr: 0x10000975C, symSize: 0x50 }
  - { offset: 0x5F40B, size: 0x8, addend: 0x0, symName: __ZNK5Eigen8internal16binary_evaluatorINS_13CwiseBinaryOpINS0_20scalar_difference_opIddEEKNS_6MatrixIdLin1ELi1ELi0ELin1ELi1EEES7_EENS0_10IndexBasedES9_ddE4Data4funcEv, symObjAddr: 0x9008, symBinAddr: 0x100009748, symSize: 0x14 }
  - { offset: 0x5F45C, size: 0x8, addend: 0x0, symName: __ZN5Eigen8internal9evaluatorIKNS_12ArrayWrapperIKNS_13CwiseBinaryOpINS0_20scalar_difference_opIddEEKNS_6MatrixIdLin1ELi1ELi0ELin1ELi1EEES8_EEEEEC1ERSC_, symObjAddr: 0x8FE0, symBinAddr: 0x100009720, symSize: 0x28 }
  - { offset: 0x5F48B, size: 0x8, addend: 0x0, symName: __ZNK5Eigen13CwiseBinaryOpINS_8internal13scalar_cmp_opIddLNS1_14ComparisonNameE0EEEKNS_12ArrayWrapperIKNS0_INS1_20scalar_difference_opIddEEKNS_6MatrixIdLin1ELi1ELi0ELin1ELi1EEESA_EEEESE_E3rhsEv, symObjAddr: 0x8FC8, symBinAddr: 0x100009708, symSize: 0x18 }
  - { offset: 0x5F4B5, size: 0x8, addend: 0x0, symName: __ZNK5Eigen13CwiseBinaryOpINS_8internal13scalar_cmp_opIddLNS1_14ComparisonNameE0EEEKNS_12ArrayWrapperIKNS0_INS1_20scalar_difference_opIddEEKNS_6MatrixIdLin1ELi1ELi0ELin1ELi1EEESA_EEEESE_E3lhsEv, symObjAddr: 0x8FB0, symBinAddr: 0x1000096F0, symSize: 0x18 }
  - { offset: 0x5F4DF, size: 0x8, addend: 0x0, symName: __ZNK5Eigen13CwiseBinaryOpINS_8internal13scalar_cmp_opIddLNS1_14ComparisonNameE0EEEKNS_12ArrayWrapperIKNS0_INS1_20scalar_difference_opIddEEKNS_6MatrixIdLin1ELi1ELi0ELin1ELi1EEESA_EEEESE_E7functorEv, symObjAddr: 0x8F98, symBinAddr: 0x1000096D8, symSize: 0x18 }
  - { offset: 0x5F51B, size: 0x8, addend: 0x0, symName: __ZN5Eigen8internal12pminmax_implILi0EE3runIdPFdRKdS5_EEET_RKS8_SA_T0_, symObjAddr: 0x8F64, symBinAddr: 0x1000096A4, symSize: 0x34 }
  - { offset: 0x5F579, size: 0x8, addend: 0x0, symName: __ZN5Eigen8internal4pmaxIdEET_RKS2_S4_, symObjAddr: 0x8F28, symBinAddr: 0x100009668, symSize: 0x3C }
  - { offset: 0x5F5EA, size: 0x8, addend: 0x0, symName: __ZN5Eigen8internal13predux_helperI13__Float64x2_tPFdRKdS4_EEENS0_15unpacket_traitsIT_E4typeERKS8_T0_, symObjAddr: 0x8E60, symBinAddr: 0x1000095A0, symSize: 0xC8 }
  - { offset: 0x5F6D0, size: 0x8, addend: 0x0, symName: __ZN5Eigen8internal12pminmax_implILi0EE3runI13__Float64x2_tPFS4_RKDv2_dS7_EEET_RKSA_SC_T0_, symObjAddr: 0x8E2C, symBinAddr: 0x10000956C, symSize: 0x34 }
  - { offset: 0x5F757, size: 0x8, addend: 0x0, symName: __ZN5Eigen8internal18first_aligned_implILi16ENS_12CwiseUnaryOpINS0_13scalar_abs_opIdEEKNS_6MatrixIdLin1ELi1ELi0ELin1ELi1EEEEELb1EE3runERKS8_, symObjAddr: 0x8E18, symBinAddr: 0x100009558, symSize: 0x14 }
  - { offset: 0x5F7A5, size: 0x8, addend: 0x0, symName: __ZN5Eigen8internal15unary_evaluatorINS_12CwiseUnaryOpINS0_13scalar_abs_opIdEEKNS_6MatrixIdLin1ELi1ELi0ELin1ELi1EEEEENS0_10IndexBasedEdE4DataC1ERKS8_, symObjAddr: 0x8DC0, symBinAddr: 0x100009500, symSize: 0x58 }
  - { offset: 0x5F7EE, size: 0x8, addend: 0x0, symName: __ZN5Eigen8internal14evaluator_baseINS_12CwiseUnaryOpINS0_13scalar_abs_opIdEEKNS_6MatrixIdLin1ELi1ELi0ELin1ELi1EEEEEEC2Ev, symObjAddr: 0x8DAC, symBinAddr: 0x1000094EC, symSize: 0x14 }
  - { offset: 0x5F810, size: 0x8, addend: 0x0, symName: __ZN5Eigen8internal26call_dense_assignment_loopINS_6MatrixIdLin1ELi1ELi0ELin1ELi1EEES3_NS0_9assign_opIddEEEEvRT_RKT0_RKT1_, symObjAddr: 0x8CFC, symBinAddr: 0x10000943C, symSize: 0xB0 }
  - { offset: 0x5F8D2, size: 0x8, addend: 0x0, symName: __ZN5Eigen8internal18check_for_aliasingINS_6MatrixIdLin1ELi1ELi0ELin1ELi1EEES3_EEvRKT_RKT0_, symObjAddr: 0x8CE4, symBinAddr: 0x100009424, symSize: 0x18 }
  - { offset: 0x5F91F, size: 0x8, addend: 0x0, symName: __ZN5Eigen8internal26call_dense_assignment_loopINS_6MatrixIdLin1ELi1ELi0ELin1ELi1EEENS_13CwiseBinaryOpINS0_17scalar_product_opIddEEKNS_12CwiseUnaryOpINS0_13scalar_sin_opIdEEKNS_12ArrayWrapperIS3_EEEEKNS7_INS0_13scalar_exp_opIdEEKNS4_IS6_KNS7_INS0_18scalar_opposite_opIdEEKNS4_INS0_20scalar_difference_opIddEESC_KNS_14CwiseNullaryOpINS0_18scalar_constant_opIdEEKNS_5ArrayIdLin1ELi1ELi0ELin1ELi1EEEEEEEEESU_EEEEEENS0_9assign_opIddEEEEvRT_RKT0_RKT1_, symObjAddr: 0x8C34, symBinAddr: 0x100009374, symSize: 0xB0 }
  - { offset: 0x5FA08, size: 0x8, addend: 0x0, symName: __ZN5Eigen8internal9evaluatorINS_13CwiseBinaryOpINS0_17scalar_product_opIddEEKNS_12CwiseUnaryOpINS0_13scalar_sin_opIdEEKNS_12ArrayWrapperINS_6MatrixIdLin1ELi1ELi0ELin1ELi1EEEEEEEKNS5_INS0_13scalar_exp_opIdEEKNS2_IS4_KNS5_INS0_18scalar_opposite_opIdEEKNS2_INS0_20scalar_difference_opIddEESC_KNS_14CwiseNullaryOpINS0_18scalar_constant_opIdEEKNS_5ArrayIdLin1ELi1ELi0ELin1ELi1EEEEEEEEESU_EEEEEEED1Ev, symObjAddr: 0x8C14, symBinAddr: 0x100009354, symSize: 0x20 }
  - { offset: 0x5FA4C, size: 0x8, addend: 0x0, symName: __ZN5Eigen8internal16binary_evaluatorINS_13CwiseBinaryOpINS0_17scalar_product_opIddEEKNS_12CwiseUnaryOpINS0_13scalar_sin_opIdEEKNS_12ArrayWrapperINS_6MatrixIdLin1ELi1ELi0ELin1ELi1EEEEEEEKNS5_INS0_13scalar_exp_opIdEEKNS2_IS4_KNS5_INS0_18scalar_opposite_opIdEEKNS2_INS0_20scalar_difference_opIddEESC_KNS_14CwiseNullaryOpINS0_18scalar_constant_opIdEEKNS_5ArrayIdLin1ELi1ELi0ELin1ELi1EEEEEEEEESU_EEEEEENS0_10IndexBasedES12_ddED2Ev, symObjAddr: 0x8BEC, symBinAddr: 0x10000932C, symSize: 0x28 }
  - { offset: 0x5FA90, size: 0x8, addend: 0x0, symName: __ZN5Eigen8internal16binary_evaluatorINS_13CwiseBinaryOpINS0_17scalar_product_opIddEEKNS_12CwiseUnaryOpINS0_13scalar_sin_opIdEEKNS_12ArrayWrapperINS_6MatrixIdLin1ELi1ELi0ELin1ELi1EEEEEEEKNS5_INS0_13scalar_exp_opIdEEKNS2_IS4_KNS5_INS0_18scalar_opposite_opIdEEKNS2_INS0_20scalar_difference_opIddEESC_KNS_14CwiseNullaryOpINS0_18scalar_constant_opIdEEKNS_5ArrayIdLin1ELi1ELi0ELin1ELi1EEEEEEEEESU_EEEEEENS0_10IndexBasedES12_ddE4DataD1Ev, symObjAddr: 0x8BBC, symBinAddr: 0x1000092FC, symSize: 0x30 }
  - { offset: 0x5FAD3, size: 0x8, addend: 0x0, symName: __ZN5Eigen8internal9evaluatorIKNS_12CwiseUnaryOpINS0_13scalar_exp_opIdEEKNS_13CwiseBinaryOpINS0_17scalar_product_opIddEEKNS2_INS0_18scalar_opposite_opIdEEKNS5_INS0_20scalar_difference_opIddEEKNS_12ArrayWrapperINS_6MatrixIdLin1ELi1ELi0ELin1ELi1EEEEEKNS_14CwiseNullaryOpINS0_18scalar_constant_opIdEEKNS_5ArrayIdLin1ELi1ELi0ELin1ELi1EEEEEEEEESQ_EEEEED1Ev, symObjAddr: 0x8B9C, symBinAddr: 0x1000092DC, symSize: 0x20 }
  - { offset: 0x5FB16, size: 0x8, addend: 0x0, symName: __ZN5Eigen8internal9evaluatorINS_12CwiseUnaryOpINS0_13scalar_exp_opIdEEKNS_13CwiseBinaryOpINS0_17scalar_product_opIddEEKNS2_INS0_18scalar_opposite_opIdEEKNS5_INS0_20scalar_difference_opIddEEKNS_12ArrayWrapperINS_6MatrixIdLin1ELi1ELi0ELin1ELi1EEEEEKNS_14CwiseNullaryOpINS0_18scalar_constant_opIdEEKNS_5ArrayIdLin1ELi1ELi0ELin1ELi1EEEEEEEEESQ_EEEEED2Ev, symObjAddr: 0x8B7C, symBinAddr: 0x1000092BC, symSize: 0x20 }
  - { offset: 0x5FB5A, size: 0x8, addend: 0x0, symName: __ZN5Eigen8internal15unary_evaluatorINS_12CwiseUnaryOpINS0_13scalar_exp_opIdEEKNS_13CwiseBinaryOpINS0_17scalar_product_opIddEEKNS2_INS0_18scalar_opposite_opIdEEKNS5_INS0_20scalar_difference_opIddEEKNS_12ArrayWrapperINS_6MatrixIdLin1ELi1ELi0ELin1ELi1EEEEEKNS_14CwiseNullaryOpINS0_18scalar_constant_opIdEEKNS_5ArrayIdLin1ELi1ELi0ELin1ELi1EEEEEEEEESQ_EEEENS0_10IndexBasedEdED2Ev, symObjAddr: 0x8B54, symBinAddr: 0x100009294, symSize: 0x28 }
  - { offset: 0x5FB9E, size: 0x8, addend: 0x0, symName: __ZN5Eigen8internal15unary_evaluatorINS_12CwiseUnaryOpINS0_13scalar_exp_opIdEEKNS_13CwiseBinaryOpINS0_17scalar_product_opIddEEKNS2_INS0_18scalar_opposite_opIdEEKNS5_INS0_20scalar_difference_opIddEEKNS_12ArrayWrapperINS_6MatrixIdLin1ELi1ELi0ELin1ELi1EEEEEKNS_14CwiseNullaryOpINS0_18scalar_constant_opIdEEKNS_5ArrayIdLin1ELi1ELi0ELin1ELi1EEEEEEEEESQ_EEEENS0_10IndexBasedEdE4DataD1Ev, symObjAddr: 0x8B30, symBinAddr: 0x100009270, symSize: 0x24 }
  - { offset: 0x5FBE1, size: 0x8, addend: 0x0, symName: __ZN5Eigen8internal9evaluatorIKNS_13CwiseBinaryOpINS0_17scalar_product_opIddEEKNS_12CwiseUnaryOpINS0_18scalar_opposite_opIdEEKNS2_INS0_20scalar_difference_opIddEEKNS_12ArrayWrapperINS_6MatrixIdLin1ELi1ELi0ELin1ELi1EEEEEKNS_14CwiseNullaryOpINS0_18scalar_constant_opIdEEKNS_5ArrayIdLin1ELi1ELi0ELin1ELi1EEEEEEEEESO_EEED1Ev, symObjAddr: 0x8B10, symBinAddr: 0x100009250, symSize: 0x20 }
  - { offset: 0x5FC25, size: 0x8, addend: 0x0, symName: __ZN5Eigen8internal9evaluatorINS_13CwiseBinaryOpINS0_17scalar_product_opIddEEKNS_12CwiseUnaryOpINS0_18scalar_opposite_opIdEEKNS2_INS0_20scalar_difference_opIddEEKNS_12ArrayWrapperINS_6MatrixIdLin1ELi1ELi0ELin1ELi1EEEEEKNS_14CwiseNullaryOpINS0_18scalar_constant_opIdEEKNS_5ArrayIdLin1ELi1ELi0ELin1ELi1EEEEEEEEESO_EEED2Ev, symObjAddr: 0x8AF0, symBinAddr: 0x100009230, symSize: 0x20 }
  - { offset: 0x5FC69, size: 0x8, addend: 0x0, symName: __ZN5Eigen8internal16binary_evaluatorINS_13CwiseBinaryOpINS0_17scalar_product_opIddEEKNS_12CwiseUnaryOpINS0_18scalar_opposite_opIdEEKNS2_INS0_20scalar_difference_opIddEEKNS_12ArrayWrapperINS_6MatrixIdLin1ELi1ELi0ELin1ELi1EEEEEKNS_14CwiseNullaryOpINS0_18scalar_constant_opIdEEKNS_5ArrayIdLin1ELi1ELi0ELin1ELi1EEEEEEEEESO_EENS0_10IndexBasedESS_ddED2Ev, symObjAddr: 0x8AC8, symBinAddr: 0x100009208, symSize: 0x28 }
  - { offset: 0x5FCAD, size: 0x8, addend: 0x0, symName: __ZN5Eigen8internal16binary_evaluatorINS_13CwiseBinaryOpINS0_17scalar_product_opIddEEKNS_12CwiseUnaryOpINS0_18scalar_opposite_opIdEEKNS2_INS0_20scalar_difference_opIddEEKNS_12ArrayWrapperINS_6MatrixIdLin1ELi1ELi0ELin1ELi1EEEEEKNS_14CwiseNullaryOpINS0_18scalar_constant_opIdEEKNS_5ArrayIdLin1ELi1ELi0ELin1ELi1EEEEEEEEESO_EENS0_10IndexBasedESS_ddE4DataD1Ev, symObjAddr: 0x8A98, symBinAddr: 0x1000091D8, symSize: 0x30 }
  - { offset: 0x5FCF0, size: 0x8, addend: 0x0, symName: __ZN5Eigen8internal9evaluatorIKNS_12CwiseUnaryOpINS0_18scalar_opposite_opIdEEKNS_13CwiseBinaryOpINS0_20scalar_difference_opIddEEKNS_12ArrayWrapperINS_6MatrixIdLin1ELi1ELi0ELin1ELi1EEEEEKNS_14CwiseNullaryOpINS0_18scalar_constant_opIdEEKNS_5ArrayIdLin1ELi1ELi0ELin1ELi1EEEEEEEEEED1Ev, symObjAddr: 0x8A78, symBinAddr: 0x1000091B8, symSize: 0x20 }
  - { offset: 0x5FD33, size: 0x8, addend: 0x0, symName: __ZN5Eigen8internal9evaluatorINS_12CwiseUnaryOpINS0_18scalar_opposite_opIdEEKNS_13CwiseBinaryOpINS0_20scalar_difference_opIddEEKNS_12ArrayWrapperINS_6MatrixIdLin1ELi1ELi0ELin1ELi1EEEEEKNS_14CwiseNullaryOpINS0_18scalar_constant_opIdEEKNS_5ArrayIdLin1ELi1ELi0ELin1ELi1EEEEEEEEEED2Ev, symObjAddr: 0x8A58, symBinAddr: 0x100009198, symSize: 0x20 }
  - { offset: 0x5FD77, size: 0x8, addend: 0x0, symName: __ZN5Eigen8internal15unary_evaluatorINS_12CwiseUnaryOpINS0_18scalar_opposite_opIdEEKNS_13CwiseBinaryOpINS0_20scalar_difference_opIddEEKNS_12ArrayWrapperINS_6MatrixIdLin1ELi1ELi0ELin1ELi1EEEEEKNS_14CwiseNullaryOpINS0_18scalar_constant_opIdEEKNS_5ArrayIdLin1ELi1ELi0ELin1ELi1EEEEEEEEENS0_10IndexBasedEdED2Ev, symObjAddr: 0x8A30, symBinAddr: 0x100009170, symSize: 0x28 }
  - { offset: 0x5FDBB, size: 0x8, addend: 0x0, symName: __ZN5Eigen8internal15unary_evaluatorINS_12CwiseUnaryOpINS0_18scalar_opposite_opIdEEKNS_13CwiseBinaryOpINS0_20scalar_difference_opIddEEKNS_12ArrayWrapperINS_6MatrixIdLin1ELi1ELi0ELin1ELi1EEEEEKNS_14CwiseNullaryOpINS0_18scalar_constant_opIdEEKNS_5ArrayIdLin1ELi1ELi0ELin1ELi1EEEEEEEEENS0_10IndexBasedEdE4DataD1Ev, symObjAddr: 0x8A0C, symBinAddr: 0x10000914C, symSize: 0x24 }
  - { offset: 0x5FDFE, size: 0x8, addend: 0x0, symName: __ZN5Eigen8internal9evaluatorIKNS_13CwiseBinaryOpINS0_20scalar_difference_opIddEEKNS_12ArrayWrapperINS_6MatrixIdLin1ELi1ELi0ELin1ELi1EEEEEKNS_14CwiseNullaryOpINS0_18scalar_constant_opIdEEKNS_5ArrayIdLin1ELi1ELi0ELin1ELi1EEEEEEEED1Ev, symObjAddr: 0x89EC, symBinAddr: 0x10000912C, symSize: 0x20 }
  - { offset: 0x5FE42, size: 0x8, addend: 0x0, symName: __ZN5Eigen8internal9evaluatorINS_13CwiseBinaryOpINS0_20scalar_difference_opIddEEKNS_12ArrayWrapperINS_6MatrixIdLin1ELi1ELi0ELin1ELi1EEEEEKNS_14CwiseNullaryOpINS0_18scalar_constant_opIdEEKNS_5ArrayIdLin1ELi1ELi0ELin1ELi1EEEEEEEED2Ev, symObjAddr: 0x89CC, symBinAddr: 0x10000910C, symSize: 0x20 }
  - { offset: 0x5FE86, size: 0x8, addend: 0x0, symName: __ZN5Eigen8internal16binary_evaluatorINS_13CwiseBinaryOpINS0_20scalar_difference_opIddEEKNS_12ArrayWrapperINS_6MatrixIdLin1ELi1ELi0ELin1ELi1EEEEEKNS_14CwiseNullaryOpINS0_18scalar_constant_opIdEEKNS_5ArrayIdLin1ELi1ELi0ELin1ELi1EEEEEEENS0_10IndexBasedESJ_ddED2Ev, symObjAddr: 0x89A4, symBinAddr: 0x1000090E4, symSize: 0x28 }
  - { offset: 0x5FECA, size: 0x8, addend: 0x0, symName: __ZN5Eigen8internal16binary_evaluatorINS_13CwiseBinaryOpINS0_20scalar_difference_opIddEEKNS_12ArrayWrapperINS_6MatrixIdLin1ELi1ELi0ELin1ELi1EEEEEKNS_14CwiseNullaryOpINS0_18scalar_constant_opIdEEKNS_5ArrayIdLin1ELi1ELi0ELin1ELi1EEEEEEENS0_10IndexBasedESJ_ddE4DataD1Ev, symObjAddr: 0x8974, symBinAddr: 0x1000090B4, symSize: 0x30 }
  - { offset: 0x5FF0D, size: 0x8, addend: 0x0, symName: __ZN5Eigen8internal9evaluatorIKNS_14CwiseNullaryOpINS0_18scalar_constant_opIdEEKNS_5ArrayIdLin1ELi1ELi0ELin1ELi1EEEEEED1Ev, symObjAddr: 0x8954, symBinAddr: 0x100009094, symSize: 0x20 }
  - { offset: 0x5FF51, size: 0x8, addend: 0x0, symName: __ZN5Eigen8internal9evaluatorINS_14CwiseNullaryOpINS0_18scalar_constant_opIdEEKNS_5ArrayIdLin1ELi1ELi0ELin1ELi1EEEEEED2Ev, symObjAddr: 0x8934, symBinAddr: 0x100009074, symSize: 0x20 }
  - { offset: 0x5FF94, size: 0x8, addend: 0x0, symName: __ZN5Eigen8internal9evaluatorIKNS_12CwiseUnaryOpINS0_13scalar_sin_opIdEEKNS_12ArrayWrapperINS_6MatrixIdLin1ELi1ELi0ELin1ELi1EEEEEEEED1Ev, symObjAddr: 0x8914, symBinAddr: 0x100009054, symSize: 0x20 }
  - { offset: 0x5FFD7, size: 0x8, addend: 0x0, symName: __ZN5Eigen8internal9evaluatorINS_12CwiseUnaryOpINS0_13scalar_sin_opIdEEKNS_12ArrayWrapperINS_6MatrixIdLin1ELi1ELi0ELin1ELi1EEEEEEEED2Ev, symObjAddr: 0x88F4, symBinAddr: 0x100009034, symSize: 0x20 }
  - { offset: 0x6001B, size: 0x8, addend: 0x0, symName: __ZN5Eigen8internal15unary_evaluatorINS_12CwiseUnaryOpINS0_13scalar_sin_opIdEEKNS_12ArrayWrapperINS_6MatrixIdLin1ELi1ELi0ELin1ELi1EEEEEEENS0_10IndexBasedEdED2Ev, symObjAddr: 0x88CC, symBinAddr: 0x10000900C, symSize: 0x28 }
  - { offset: 0x6005F, size: 0x8, addend: 0x0, symName: __ZN5Eigen8internal15unary_evaluatorINS_12CwiseUnaryOpINS0_13scalar_sin_opIdEEKNS_12ArrayWrapperINS_6MatrixIdLin1ELi1ELi0ELin1ELi1EEEEEEENS0_10IndexBasedEdE4DataD1Ev, symObjAddr: 0x88A8, symBinAddr: 0x100008FE8, symSize: 0x24 }
  - { offset: 0x600A2, size: 0x8, addend: 0x0, symName: __ZN5Eigen8internal9evaluatorIKNS_12ArrayWrapperINS_6MatrixIdLin1ELi1ELi0ELin1ELi1EEEEEED1Ev, symObjAddr: 0x8888, symBinAddr: 0x100008FC8, symSize: 0x20 }
  - { offset: 0x600E5, size: 0x8, addend: 0x0, symName: __ZN5Eigen8internal9evaluatorINS_12ArrayWrapperINS_6MatrixIdLin1ELi1ELi0ELin1ELi1EEEEEED2Ev, symObjAddr: 0x8868, symBinAddr: 0x100008FA8, symSize: 0x20 }
  - { offset: 0x60129, size: 0x8, addend: 0x0, symName: __ZN5Eigen8internal15unary_evaluatorINS_12ArrayWrapperINS_6MatrixIdLin1ELi1ELi0ELin1ELi1EEEEENS0_10IndexBasedEdED2Ev, symObjAddr: 0x8848, symBinAddr: 0x100008F88, symSize: 0x20 }
  - { offset: 0x6016D, size: 0x8, addend: 0x0, symName: __ZN5Eigen8internal22evaluator_wrapper_baseINS_12ArrayWrapperINS_6MatrixIdLin1ELi1ELi0ELin1ELi1EEEEEED2Ev, symObjAddr: 0x8820, symBinAddr: 0x100008F60, symSize: 0x28 }
  - { offset: 0x6018F, size: 0x8, addend: 0x0, symName: __ZN5Eigen8internal18check_for_aliasingINS_6MatrixIdLin1ELi1ELi0ELin1ELi1EEENS_13CwiseBinaryOpINS0_17scalar_product_opIddEEKNS_12CwiseUnaryOpINS0_13scalar_sin_opIdEEKNS_12ArrayWrapperIS3_EEEEKNS7_INS0_13scalar_exp_opIdEEKNS4_IS6_KNS7_INS0_18scalar_opposite_opIdEEKNS4_INS0_20scalar_difference_opIddEESC_KNS_14CwiseNullaryOpINS0_18scalar_constant_opIdEEKNS_5ArrayIdLin1ELi1ELi0ELin1ELi1EEEEEEEEESU_EEEEEEEEvRKT_RKT0_, symObjAddr: 0x8808, symBinAddr: 0x100008F48, symSize: 0x18 }
  - { offset: 0x601E0, size: 0x8, addend: 0x0, symName: __ZNK5Eigen14CwiseNullaryOpINS_8internal18scalar_constant_opIdEENS_6MatrixIdLin1ELin1ELi0ELin1ELin1EEEE7functorEv, symObjAddr: 0x87F0, symBinAddr: 0x100008F30, symSize: 0x18 }
  - { offset: 0x60206, size: 0x8, addend: 0x0, symName: __ZN5Eigen8internal17resize_if_allowedINS_6MatrixIdLin1ELin1ELi0ELin1ELin1EEENS_14CwiseNullaryOpINS0_18scalar_constant_opIdEES3_EEddEEvRT_RKT0_RKNS0_9assign_opIT1_T2_EE, symObjAddr: 0x86D8, symBinAddr: 0x100008E18, symSize: 0x118 }
  - { offset: 0x6029A, size: 0x8, addend: 0x0, symName: __ZN5Eigen8internal27checkTransposeAliasing_implINS_6MatrixIdLin1ELin1ELi0ELin1ELin1EEENS_14CwiseNullaryOpINS0_18scalar_constant_opIdEES3_EELb0EE3runERKS3_RKS7_, symObjAddr: 0x86C0, symBinAddr: 0x100008E00, symSize: 0x18 }
  - { offset: 0x60316, size: 0x8, addend: 0x0, symName: __ZNK5Eigen8internal18scalar_constant_opIdEclEv, symObjAddr: 0x86A4, symBinAddr: 0x100008DE4, symSize: 0x1C }
  - { offset: 0x60340, size: 0x8, addend: 0x0, symName: __ZNK5Eigen14CwiseNullaryOpINS_8internal18scalar_constant_opIdEENS_6MatrixIdLin1ELi1ELi0ELin1ELi1EEEE7functorEv, symObjAddr: 0x868C, symBinAddr: 0x100008DCC, symSize: 0x18 }
  - { offset: 0x6036A, size: 0x8, addend: 0x0, symName: __ZN5Eigen15PlainObjectBaseINS_6MatrixIdLin1ELi1ELi0ELin1ELi1EEEE4dataEv, symObjAddr: 0x8670, symBinAddr: 0x100008DB0, symSize: 0x1C }
  - { offset: 0x60390, size: 0x8, addend: 0x0, symName: __ZN5Eigen8internal17resize_if_allowedINS_6MatrixIdLin1ELi1ELi0ELin1ELi1EEENS_14CwiseNullaryOpINS0_18scalar_constant_opIdEES3_EEddEEvRT_RKT0_RKNS0_9assign_opIT1_T2_EE, symObjAddr: 0x8558, symBinAddr: 0x100008C98, symSize: 0x118 }
  - { offset: 0x60424, size: 0x8, addend: 0x0, symName: __ZN5Eigen8internal21dense_assignment_loopINS0_31generic_dense_assignment_kernelINS0_9evaluatorINS_6MatrixIdLin1ELi1ELi0ELin1ELi1EEEEENS3_INS_14CwiseNullaryOpINS0_12linspaced_opIdEES5_EEEENS0_9assign_opIddEELi0EEELi1ELi0EE3runERSE_, symObjAddr: 0x8500, symBinAddr: 0x100008C40, symSize: 0x58 }
  - { offset: 0x60487, size: 0x8, addend: 0x0, symName: __ZNK5Eigen8internal31generic_dense_assignment_kernelINS0_9evaluatorINS_6MatrixIdLin1ELi1ELi0ELin1ELi1EEEEENS2_INS_14CwiseNullaryOpINS0_12linspaced_opIdEES4_EEEENS0_9assign_opIddEELi0EE4sizeEv, symObjAddr: 0x84E0, symBinAddr: 0x100008C20, symSize: 0x20 }
  - { offset: 0x60503, size: 0x8, addend: 0x0, symName: __ZN5Eigen8internal31generic_dense_assignment_kernelINS0_9evaluatorINS_6MatrixIdLin1ELi1ELi0ELin1ELi1EEEEENS2_INS_14CwiseNullaryOpINS0_12linspaced_opIdEES4_EEEENS0_9assign_opIddEELi0EEC1ERS5_RKSA_RKSC_RS4_, symObjAddr: 0x848C, symBinAddr: 0x100008BCC, symSize: 0x54 }
  - { offset: 0x6054D, size: 0x8, addend: 0x0, symName: __ZNK5Eigen9EigenBaseINS_6MatrixIdLin1ELi1ELi0ELin1ELi1EEEE18const_cast_derivedEv, symObjAddr: 0x8478, symBinAddr: 0x100008BB8, symSize: 0x14 }
  - { offset: 0x60573, size: 0x8, addend: 0x0, symName: __ZN5Eigen8internal17resize_if_allowedINS_6MatrixIdLin1ELi1ELi0ELin1ELi1EEENS_14CwiseNullaryOpINS0_12linspaced_opIdEES3_EEddEEvRT_RKT0_RKNS0_9assign_opIT1_T2_EE, symObjAddr: 0x8360, symBinAddr: 0x100008AA0, symSize: 0x118 }
  - { offset: 0x60625, size: 0x8, addend: 0x0, symName: __ZN5Eigen8internal14evaluator_baseINS_14CwiseNullaryOpINS0_12linspaced_opIdEENS_6MatrixIdLin1ELi1ELi0ELin1ELi1EEEEEED2Ev, symObjAddr: 0x834C, symBinAddr: 0x100008A8C, symSize: 0x14 }
  - { offset: 0x60673, size: 0x8, addend: 0x0, symName: __ZN5Eigen8internal9evaluatorINS_14CwiseNullaryOpINS0_12linspaced_opIdEENS_6MatrixIdLin1ELi1ELi0ELin1ELi1EEEEEEC1ERKS7_, symObjAddr: 0x8300, symBinAddr: 0x100008A40, symSize: 0x4C }
  - { offset: 0x606A2, size: 0x8, addend: 0x0, symName: __ZN5Eigen8internal26conditional_aligned_mallocILb1EEEPvm, symObjAddr: 0x82E4, symBinAddr: 0x100008A24, symSize: 0x1C }
  - { offset: 0x606F4, size: 0x8, addend: 0x0, symName: __ZN5Eigen8internal10AssignmentINS_6MatrixIdLin1ELi1ELi0ELin1ELi1EEENS_13CwiseBinaryOpINS0_13scalar_sum_opIddEEKNS_12ArrayWrapperIS3_EEKNS4_INS0_17scalar_product_opIddEEKNS_14CwiseNullaryOpINS0_18scalar_constant_opIdEEKNS_5ArrayIdLin1ELi1ELi0ELin1ELi1EEEEEKNS4_IS6_KNS4_ISB_SJ_S9_EESL_EEEEEENS0_9assign_opIddEENS0_11Dense2DenseEvE3runERS3_RKSQ_RKSS_, symObjAddr: 0x82A8, symBinAddr: 0x1000089E8, symSize: 0x3C }
  - { offset: 0x60740, size: 0x8, addend: 0x0, symName: __ZN5Eigen8internal22ignore_unused_variableIlEEvRKT_, symObjAddr: 0x8294, symBinAddr: 0x1000089D4, symSize: 0x14 }
  - { offset: 0x6076F, size: 0x8, addend: 0x0, symName: __ZNK5Eigen12DenseStorageIdLin1ELin1ELi1ELi0EE4dataEv, symObjAddr: 0x827C, symBinAddr: 0x1000089BC, symSize: 0x18 }
  - { offset: 0x60795, size: 0x8, addend: 0x0, symName: __ZN5Eigen8internal26call_dense_assignment_loopINS_5BlockINS_6MatrixIdLin1ELin1ELi0ELin1ELin1EEELin1ELi1ELb1EEENS3_IdLin1ELi1ELi0ELin1ELi1EEENS0_9assign_opIddEEEEvRT_RKT0_RKT1_, symObjAddr: 0x81CC, symBinAddr: 0x10000890C, symSize: 0xB0 }
  - { offset: 0x6087B, size: 0x8, addend: 0x0, symName: __ZN5Eigen8internal9evaluatorINS_5BlockINS_6MatrixIdLin1ELin1ELi0ELin1ELin1EEELin1ELi1ELb1EEEED1Ev, symObjAddr: 0x81AC, symBinAddr: 0x1000088EC, symSize: 0x20 }
  - { offset: 0x608BF, size: 0x8, addend: 0x0, symName: __ZN5Eigen8internal15block_evaluatorINS_6MatrixIdLin1ELin1ELi0ELin1ELin1EEELin1ELi1ELb1ELb1EED2Ev, symObjAddr: 0x818C, symBinAddr: 0x1000088CC, symSize: 0x20 }
  - { offset: 0x60903, size: 0x8, addend: 0x0, symName: __ZN5Eigen8internal17mapbase_evaluatorINS_5BlockINS_6MatrixIdLin1ELin1ELi0ELin1ELin1EEELin1ELi1ELb1EEENS3_IdLin1ELi1ELi0ELin1ELi1EEEED2Ev, symObjAddr: 0x816C, symBinAddr: 0x1000088AC, symSize: 0x20 }
  - { offset: 0x60925, size: 0x8, addend: 0x0, symName: __ZN5Eigen8internal18check_for_aliasingINS_5BlockINS_6MatrixIdLin1ELin1ELi0ELin1ELin1EEELin1ELi1ELb1EEENS3_IdLin1ELi1ELi0ELin1ELi1EEEEEvRKT_RKT0_, symObjAddr: 0x8154, symBinAddr: 0x100008894, symSize: 0x18 }
  - { offset: 0x609D2, size: 0x8, addend: 0x0, symName: __ZN5Eigen7MapBaseINS_5BlockINS_6MatrixIdLin1ELin1ELi0ELin1ELin1EEELin1ELi1ELb1EEELi0EEC2EPdll, symObjAddr: 0x8020, symBinAddr: 0x100008760, symSize: 0x134 }
  - { offset: 0x60A41, size: 0x8, addend: 0x0, symName: __ZN5Eigen10MatrixBaseINS_5BlockINS_6MatrixIdLin1ELin1ELi0ELin1ELin1EEELin1ELi1ELb1EEEEC2Ev, symObjAddr: 0x8000, symBinAddr: 0x100008740, symSize: 0x20 }
  - { offset: 0x60A67, size: 0x8, addend: 0x0, symName: __ZNK5Eigen9DenseBaseINS_6MatrixIdLin1ELin1ELi0ELin1ELin1EEEE9innerSizeEv, symObjAddr: 0x7FE4, symBinAddr: 0x100008724, symSize: 0x1C }
  - { offset: 0x60A91, size: 0x8, addend: 0x0, symName: __ZN5Eigen12DenseStorageIdLin1ELin1ELin1ELi0EE4dataEv, symObjAddr: 0x7FCC, symBinAddr: 0x10000870C, symSize: 0x18 }
  - { offset: 0x60ABB, size: 0x8, addend: 0x0, symName: __ZNK5Eigen8internal16binary_evaluatorINS_13CwiseBinaryOpINS0_20scalar_difference_opIddEEKNS_6MatrixIdLin1ELi1ELi0ELin1ELi1EEES7_EENS0_10IndexBasedES9_ddE5coeffEll, symObjAddr: 0x7F58, symBinAddr: 0x100008698, symSize: 0x74 }
  - { offset: 0x60B2F, size: 0x8, addend: 0x0, symName: __ZN5Eigen8internal16binary_evaluatorINS_13CwiseBinaryOpINS0_13scalar_cmp_opIddLNS0_14ComparisonNameE0EEEKNS_12ArrayWrapperIKNS2_INS0_20scalar_difference_opIddEEKNS_6MatrixIdLin1ELi1ELi0ELin1ELi1EEESB_EEEESF_EENS0_10IndexBasedESH_ddE4DataC1ERKSG_, symObjAddr: 0x7ECC, symBinAddr: 0x10000860C, symSize: 0x8C }
  - { offset: 0x60B78, size: 0x8, addend: 0x0, symName: __ZN5Eigen8internal14evaluator_baseINS_13CwiseBinaryOpINS0_13scalar_cmp_opIddLNS0_14ComparisonNameE0EEEKNS_12ArrayWrapperIKNS2_INS0_20scalar_difference_opIddEEKNS_6MatrixIdLin1ELi1ELi0ELin1ELi1EEESB_EEEESF_EEEC2Ev, symObjAddr: 0x7EB8, symBinAddr: 0x1000085F8, symSize: 0x14 }
  - { offset: 0x60B9E, size: 0x8, addend: 0x0, symName: __ZNK5Eigen13CwiseBinaryOpINS_8internal20scalar_difference_opIddEEKNS_6MatrixIdLin1ELi1ELi0ELin1ELi1EEES6_E4colsEv, symObjAddr: 0x7E98, symBinAddr: 0x1000085D8, symSize: 0x20 }
  - { offset: 0x60BC8, size: 0x8, addend: 0x0, symName: __ZNK5Eigen13CwiseBinaryOpINS_8internal20scalar_difference_opIddEEKNS_6MatrixIdLin1ELi1ELi0ELin1ELi1EEES6_E4rowsEv, symObjAddr: 0x7E78, symBinAddr: 0x1000085B8, symSize: 0x20 }
  - { offset: 0x60BEE, size: 0x8, addend: 0x0, symName: __ZN5Eigen8internal4pmaxILi0EdEET0_RKS2_S4_, symObjAddr: 0x7E44, symBinAddr: 0x100008584, symSize: 0x34 }
  - { offset: 0x60C40, size: 0x8, addend: 0x0, symName: __ZNK5Eigen8internal13scalar_abs_opIdEclERKd, symObjAddr: 0x7E08, symBinAddr: 0x100008548, symSize: 0x3C }
  - { offset: 0x60C9D, size: 0x8, addend: 0x0, symName: __ZNK5Eigen8internal9evaluatorINS_15PlainObjectBaseINS_6MatrixIdLin1ELi1ELi0ELin1ELi1EEEEEE5coeffEl, symObjAddr: 0x7DE0, symBinAddr: 0x100008520, symSize: 0x28 }
  - { offset: 0x60CD3, size: 0x8, addend: 0x0, symName: __ZN5Eigen8internal10predux_maxILi0E13__Float64x2_tEENS0_15unpacket_traitsIT0_E4typeERKS4_, symObjAddr: 0x7DB4, symBinAddr: 0x1000084F4, symSize: 0x2C }
  - { offset: 0x60D10, size: 0x8, addend: 0x0, symName: __ZN5Eigen8internal4pmaxILi0E13__Float64x2_tEET0_RKS3_S5_, symObjAddr: 0x7D80, symBinAddr: 0x1000084C0, symSize: 0x34 }
  - { offset: 0x60D62, size: 0x8, addend: 0x0, symName: __ZNK5Eigen8internal13scalar_abs_opIdE8packetOpI13__Float64x2_tEEKT_RS6_, symObjAddr: 0x7D58, symBinAddr: 0x100008498, symSize: 0x28 }
  - { offset: 0x60DA5, size: 0x8, addend: 0x0, symName: __ZNK5Eigen8internal9evaluatorINS_15PlainObjectBaseINS_6MatrixIdLin1ELi1ELi0ELin1ELi1EEEEEE6packetILi16E13__Float64x2_tEET0_l, symObjAddr: 0x7D14, symBinAddr: 0x100008454, symSize: 0x44 }
  - { offset: 0x60E15, size: 0x8, addend: 0x0, symName: __ZNK5Eigen8internal15unary_evaluatorINS_12CwiseUnaryOpINS0_13scalar_abs_opIdEEKNS_6MatrixIdLin1ELi1ELi0ELin1ELi1EEEEENS0_10IndexBasedEdE4Data4funcEv, symObjAddr: 0x7D00, symBinAddr: 0x100008440, symSize: 0x14 }
  - { offset: 0x60E3B, size: 0x8, addend: 0x0, symName: __ZN5Eigen8internalL13first_alignedILi16ENS_12CwiseUnaryOpINS0_13scalar_abs_opIdEEKNS_6MatrixIdLin1ELi1ELi0ELin1ELi1EEEEEEElRKNS_9DenseBaseIT0_EE, symObjAddr: 0x7CE0, symBinAddr: 0x100008420, symSize: 0x20 }
  - { offset: 0x60EB5, size: 0x8, addend: 0x0, symName: __ZN5Eigen8internal15unary_evaluatorINS_12CwiseUnaryOpINS0_13scalar_abs_opIdEEKNS_6MatrixIdLin1ELi1ELi0ELin1ELi1EEEEENS0_10IndexBasedEdEC2ERKS8_, symObjAddr: 0x7C94, symBinAddr: 0x1000083D4, symSize: 0x4C }
  - { offset: 0x60EE0, size: 0x8, addend: 0x0, symName: __ZN5Eigen8internal10AssignmentINS_6MatrixIdLin1ELi1ELi0ELin1ELi1EEES3_NS0_9assign_opIddEENS0_11Dense2DenseEvE3runERS3_RKS3_RKS5_, symObjAddr: 0x7C58, symBinAddr: 0x100008398, symSize: 0x3C }
  - { offset: 0x60F2C, size: 0x8, addend: 0x0, symName: __ZN5Eigen8internal10AssignmentINS_6MatrixIdLin1ELi1ELi0ELin1ELi1EEENS_13CwiseBinaryOpINS0_17scalar_product_opIddEEKNS_12CwiseUnaryOpINS0_13scalar_sin_opIdEEKNS_12ArrayWrapperIS3_EEEEKNS7_INS0_13scalar_exp_opIdEEKNS4_IS6_KNS7_INS0_18scalar_opposite_opIdEEKNS4_INS0_20scalar_difference_opIddEESC_KNS_14CwiseNullaryOpINS0_18scalar_constant_opIdEEKNS_5ArrayIdLin1ELi1ELi0ELin1ELi1EEEEEEEEESU_EEEEEENS0_9assign_opIddEENS0_11Dense2DenseEvE3runERS3_RKS11_RKS13_, symObjAddr: 0x7C1C, symBinAddr: 0x10000835C, symSize: 0x3C }
  - { offset: 0x60F78, size: 0x8, addend: 0x0, symName: __ZN5Eigen8internal26call_dense_assignment_loopINS_6MatrixIdLin1ELin1ELi0ELin1ELin1EEEEEvRT_RKNS_14CwiseNullaryOpINS0_18scalar_constant_opINS4_6ScalarEEES4_EERKNS0_9assign_opIS8_S8_EE, symObjAddr: 0x7B40, symBinAddr: 0x100008280, symSize: 0xDC }
  - { offset: 0x6109C, size: 0x8, addend: 0x0, symName: __ZN5Eigen8internal18check_for_aliasingINS_6MatrixIdLin1ELin1ELi0ELin1ELin1EEENS_14CwiseNullaryOpINS0_18scalar_constant_opIdEES3_EEEEvRKT_RKT0_, symObjAddr: 0x7AE0, symBinAddr: 0x100008220, symSize: 0x60 }
  - { offset: 0x610E9, size: 0x8, addend: 0x0, symName: __ZN5Eigen8internal26call_dense_assignment_loopINS_6MatrixIdLin1ELi1ELi0ELin1ELi1EEEEEvRT_RKNS_14CwiseNullaryOpINS0_18scalar_constant_opINS4_6ScalarEEES4_EERKNS0_9assign_opIS8_S8_EE, symObjAddr: 0x7A04, symBinAddr: 0x100008144, symSize: 0xDC }
  - { offset: 0x6120D, size: 0x8, addend: 0x0, symName: __ZN5Eigen8internal18check_for_aliasingINS_6MatrixIdLin1ELi1ELi0ELin1ELi1EEENS_14CwiseNullaryOpINS0_18scalar_constant_opIdEES3_EEEEvRKT_RKT0_, symObjAddr: 0x79EC, symBinAddr: 0x10000812C, symSize: 0x18 }
  - { offset: 0x6125A, size: 0x8, addend: 0x0, symName: __ZN5Eigen8internal26call_dense_assignment_loopINS_6MatrixIdLin1ELi1ELi0ELin1ELi1EEENS_14CwiseNullaryOpINS0_12linspaced_opIdEES3_EENS0_9assign_opIddEEEEvRT_RKT0_RKT1_, symObjAddr: 0x793C, symBinAddr: 0x10000807C, symSize: 0xB0 }
  - { offset: 0x61341, size: 0x8, addend: 0x0, symName: __ZN5Eigen8internal9evaluatorINS_14CwiseNullaryOpINS0_12linspaced_opIdEENS_6MatrixIdLin1ELi1ELi0ELin1ELi1EEEEEED1Ev, symObjAddr: 0x791C, symBinAddr: 0x10000805C, symSize: 0x20 }
  - { offset: 0x61363, size: 0x8, addend: 0x0, symName: __ZN5Eigen8internal18check_for_aliasingINS_6MatrixIdLin1ELi1ELi0ELin1ELi1EEENS_14CwiseNullaryOpINS0_12linspaced_opIdEES3_EEEEvRKT_RKT0_, symObjAddr: 0x7904, symBinAddr: 0x100008044, symSize: 0x18 }
  - { offset: 0x613B0, size: 0x8, addend: 0x0, symName: __ZN5Eigen8internal28conditional_aligned_new_autoIdLb1EEEPT_m, symObjAddr: 0x78A8, symBinAddr: 0x100007FE8, symSize: 0x5C }
  - { offset: 0x6145A, size: 0x8, addend: 0x0, symName: __ZNSt15__new_allocatorIcE8allocateEmPKv, symObjAddr: 0x7844, symBinAddr: 0x100007F84, symSize: 0x64 }
  - { offset: 0x614CC, size: 0x8, addend: 0x0, symName: __ZN5Eigen8internal21default_digits10_implIdLb1ELb0EE3runEv, symObjAddr: 0x783C, symBinAddr: 0x100007F7C, symSize: 0x8 }
  - { offset: 0x614E4, size: 0x8, addend: 0x0, symName: __ZN5Eigen8internal24call_assignment_no_aliasINS_6MatrixIdLin1ELi1ELi0ELin1ELi1EEENS_13CwiseBinaryOpINS0_13scalar_sum_opIddEEKNS_12ArrayWrapperIS3_EEKNS4_INS0_17scalar_product_opIddEEKNS_14CwiseNullaryOpINS0_18scalar_constant_opIdEEKNS_5ArrayIdLin1ELi1ELi0ELin1ELi1EEEEEKNS4_IS6_KNS4_ISB_SJ_S9_EESL_EEEEEENS0_9assign_opIddEEEEvRT_RKT0_RKT1_, symObjAddr: 0x7804, symBinAddr: 0x100007F44, symSize: 0x38 }
  - { offset: 0x615B2, size: 0x8, addend: 0x0, symName: __ZN5Eigen8internal30plainobjectbase_evaluator_dataIdLi0EEC1EPKdl, symObjAddr: 0x77D0, symBinAddr: 0x100007F10, symSize: 0x34 }
  - { offset: 0x61604, size: 0x8, addend: 0x0, symName: __ZN5Eigen8internal14evaluator_baseINS_6MatrixIdLin1ELi1ELi0ELin1ELi1EEEEC2Ev, symObjAddr: 0x77BC, symBinAddr: 0x100007EFC, symSize: 0x14 }
  - { offset: 0x6162A, size: 0x8, addend: 0x0, symName: __ZNK5Eigen15PlainObjectBaseINS_6MatrixIdLin1ELi1ELi0ELin1ELi1EEEE4dataEv, symObjAddr: 0x77A0, symBinAddr: 0x100007EE0, symSize: 0x1C }
  - { offset: 0x61650, size: 0x8, addend: 0x0, symName: __ZN5Eigen8internal10AssignmentINS_5BlockINS_6MatrixIdLin1ELin1ELi0ELin1ELin1EEELin1ELi1ELb1EEENS3_IdLin1ELi1ELi0ELin1ELi1EEENS0_9assign_opIddEENS0_11Dense2DenseEvE3runERS5_RKS6_RKS8_, symObjAddr: 0x7764, symBinAddr: 0x100007EA4, symSize: 0x3C }
  - { offset: 0x616A0, size: 0x8, addend: 0x0, symName: __ZN5Eigen8internal15BlockImpl_denseINS_6MatrixIdLin1ELin1ELi0ELin1ELin1EEELin1ELi1ELb1ELb1EE4initEv, symObjAddr: 0x7734, symBinAddr: 0x100007E74, symSize: 0x30 }
  - { offset: 0x6170E, size: 0x8, addend: 0x0, symName: __ZN5Eigen7MapBaseINS_5BlockINS_6MatrixIdLin1ELin1ELi0ELin1ELin1EEELin1ELi1ELb1EEELi1EEC2EPdll, symObjAddr: 0x76FC, symBinAddr: 0x100007E3C, symSize: 0x38 }
  - { offset: 0x6174F, size: 0x8, addend: 0x0, symName: __ZNK5Eigen6MatrixIdLin1ELin1ELi0ELin1ELin1EE11outerStrideEv, symObjAddr: 0x76E0, symBinAddr: 0x100007E20, symSize: 0x1C }
  - { offset: 0x61779, size: 0x8, addend: 0x0, symName: __ZNK5Eigen6MatrixIdLin1ELin1ELi0ELin1ELin1EE11innerStrideEv, symObjAddr: 0x76CC, symBinAddr: 0x100007E0C, symSize: 0x14 }
  - { offset: 0x617A3, size: 0x8, addend: 0x0, symName: __ZN5Eigen15PlainObjectBaseINS_6MatrixIdLin1ELin1ELi0ELin1ELin1EEEE4dataEv, symObjAddr: 0x76B0, symBinAddr: 0x100007DF0, symSize: 0x1C }
  - { offset: 0x617CD, size: 0x8, addend: 0x0, symName: __ZNK5Eigen8internal13scalar_cmp_opIddLNS0_14ComparisonNameE0EEclERKdS5_, symObjAddr: 0x767C, symBinAddr: 0x100007DBC, symSize: 0x34 }
  - { offset: 0x61817, size: 0x8, addend: 0x0, symName: __ZNK5Eigen8internal22evaluator_wrapper_baseINS_12ArrayWrapperIKNS_13CwiseBinaryOpINS0_20scalar_difference_opIddEEKNS_6MatrixIdLin1ELi1ELi0ELin1ELi1EEES8_EEEEE5coeffEll, symObjAddr: 0x7648, symBinAddr: 0x100007D88, symSize: 0x34 }
  - { offset: 0x61863, size: 0x8, addend: 0x0, symName: __ZNK5Eigen8internal16binary_evaluatorINS_13CwiseBinaryOpINS0_13scalar_cmp_opIddLNS0_14ComparisonNameE0EEEKNS_12ArrayWrapperIKNS2_INS0_20scalar_difference_opIddEEKNS_6MatrixIdLin1ELi1ELi0ELin1ELi1EEESB_EEEESF_EENS0_10IndexBasedESH_ddE4Data4funcEv, symObjAddr: 0x7634, symBinAddr: 0x100007D74, symSize: 0x14 }
  - { offset: 0x6188D, size: 0x8, addend: 0x0, symName: __ZNK5Eigen13CwiseBinaryOpINS_8internal13scalar_cmp_opIddLNS1_14ComparisonNameE0EEEKNS_12ArrayWrapperIKNS0_INS1_20scalar_difference_opIddEEKNS_6MatrixIdLin1ELi1ELi0ELin1ELi1EEESA_EEEESE_E4rowsEv, symObjAddr: 0x7614, symBinAddr: 0x100007D54, symSize: 0x20 }
  - { offset: 0x618B7, size: 0x8, addend: 0x0, symName: __ZNK5Eigen13CwiseBinaryOpINS_8internal13scalar_cmp_opIddLNS1_14ComparisonNameE0EEEKNS_12ArrayWrapperIKNS0_INS1_20scalar_difference_opIddEEKNS_6MatrixIdLin1ELi1ELi0ELin1ELi1EEESA_EEEESE_E4colsEv, symObjAddr: 0x75F4, symBinAddr: 0x100007D34, symSize: 0x20 }
  - { offset: 0x61909, size: 0x8, addend: 0x0, symName: __ZN5Eigen8internal16binary_evaluatorINS_13CwiseBinaryOpINS0_13scalar_cmp_opIddLNS0_14ComparisonNameE0EEEKNS_12ArrayWrapperIKNS2_INS0_20scalar_difference_opIddEEKNS_6MatrixIdLin1ELi1ELi0ELin1ELi1EEESB_EEEESF_EENS0_10IndexBasedESH_ddEC2ERKSG_, symObjAddr: 0x75A8, symBinAddr: 0x100007CE8, symSize: 0x4C }
  - { offset: 0x61938, size: 0x8, addend: 0x0, symName: __ZNK5Eigen12ArrayWrapperIKNS_13CwiseBinaryOpINS_8internal20scalar_difference_opIddEEKNS_6MatrixIdLin1ELi1ELi0ELin1ELi1EEES7_EEE4colsEv, symObjAddr: 0x758C, symBinAddr: 0x100007CCC, symSize: 0x1C }
  - { offset: 0x61962, size: 0x8, addend: 0x0, symName: __ZNK5Eigen12ArrayWrapperIKNS_13CwiseBinaryOpINS_8internal20scalar_difference_opIddEEKNS_6MatrixIdLin1ELi1ELi0ELin1ELi1EEES7_EEE4rowsEv, symObjAddr: 0x7570, symBinAddr: 0x100007CB0, symSize: 0x1C }
  - { offset: 0x619AB, size: 0x8, addend: 0x0, symName: __ZN5Eigen8internal13scalar_cmp_opIddLNS0_14ComparisonNameE0EEC1ERKS3_, symObjAddr: 0x7558, symBinAddr: 0x100007C98, symSize: 0x18 }
  - { offset: 0x619F4, size: 0x8, addend: 0x0, symName: __ZN5Eigen9DenseBaseINS_13CwiseBinaryOpINS_8internal13scalar_cmp_opIddLNS2_14ComparisonNameE0EEEKNS_12ArrayWrapperIKNS1_INS2_20scalar_difference_opIddEEKNS_6MatrixIdLin1ELi1ELi0ELin1ELi1EEESB_EEEESF_EEEC2Ev, symObjAddr: 0x7544, symBinAddr: 0x100007C84, symSize: 0x14 }
  - { offset: 0x61A34, size: 0x8, addend: 0x0, symName: __ZN5Eigen9DenseBaseINS_12ArrayWrapperIKNS_13CwiseBinaryOpINS_8internal20scalar_difference_opIddEEKNS_6MatrixIdLin1ELi1ELi0ELin1ELi1EEES8_EEEEEC2Ev, symObjAddr: 0x7530, symBinAddr: 0x100007C70, symSize: 0x14 }
  - { offset: 0x61A5A, size: 0x8, addend: 0x0, symName: __ZNK5Eigen8internal13scalar_max_opIddLi0EEclERKdS4_, symObjAddr: 0x7500, symBinAddr: 0x100007C40, symSize: 0x30 }
  - { offset: 0x61AA4, size: 0x8, addend: 0x0, symName: __ZNK5Eigen8internal15unary_evaluatorINS_12CwiseUnaryOpINS0_13scalar_abs_opIdEEKNS_6MatrixIdLin1ELi1ELi0ELin1ELi1EEEEENS0_10IndexBasedEdE5coeffEl, symObjAddr: 0x74B0, symBinAddr: 0x100007BF0, symSize: 0x50 }
  - { offset: 0x61ADF, size: 0x8, addend: 0x0, symName: __ZNK5Eigen8internal13scalar_max_opIddLi0EE6preduxI13__Float64x2_tEEdRKT_, symObjAddr: 0x7488, symBinAddr: 0x100007BC8, symSize: 0x28 }
  - { offset: 0x61B22, size: 0x8, addend: 0x0, symName: __ZNK5Eigen8internal13scalar_max_opIddLi0EE8packetOpI13__Float64x2_tEET_RKS5_S7_, symObjAddr: 0x7458, symBinAddr: 0x100007B98, symSize: 0x30 }
  - { offset: 0x61B75, size: 0x8, addend: 0x0, symName: __ZNK5Eigen8internal15unary_evaluatorINS_12CwiseUnaryOpINS0_13scalar_abs_opIdEEKNS_6MatrixIdLin1ELi1ELi0ELin1ELi1EEEEENS0_10IndexBasedEdE6packetILi16E13__Float64x2_tEET0_l, symObjAddr: 0x73FC, symBinAddr: 0x100007B3C, symSize: 0x5C }
  - { offset: 0x61BBF, size: 0x8, addend: 0x0, symName: __ZN5Eigen8internalL21first_default_alignedINS_12CwiseUnaryOpINS0_13scalar_abs_opIdEEKNS_6MatrixIdLin1ELi1ELi0ELin1ELi1EEEEEEElRKNS_9DenseBaseIT_EE, symObjAddr: 0x73E0, symBinAddr: 0x100007B20, symSize: 0x1C }
  - { offset: 0x61C1D, size: 0x8, addend: 0x0, symName: __ZN5Eigen8internal9evaluatorINS_12CwiseUnaryOpINS0_13scalar_abs_opIdEEKNS_6MatrixIdLin1ELi1ELi0ELin1ELi1EEEEEEC2ERKS8_, symObjAddr: 0x73B8, symBinAddr: 0x100007AF8, symSize: 0x28 }
  - { offset: 0x61C4C, size: 0x8, addend: 0x0, symName: __ZNK5Eigen12CwiseUnaryOpINS_8internal13scalar_abs_opIdEEKNS_6MatrixIdLin1ELi1ELi0ELin1ELi1EEEE4colsEv, symObjAddr: 0x7398, symBinAddr: 0x100007AD8, symSize: 0x20 }
  - { offset: 0x61C76, size: 0x8, addend: 0x0, symName: __ZNK5Eigen12CwiseUnaryOpINS_8internal13scalar_abs_opIdEEKNS_6MatrixIdLin1ELi1ELi0ELin1ELi1EEEE4rowsEv, symObjAddr: 0x7378, symBinAddr: 0x100007AB8, symSize: 0x20 }
  - { offset: 0x61C9C, size: 0x8, addend: 0x0, symName: __ZN5Eigen8internal24call_assignment_no_aliasINS_6MatrixIdLin1ELi1ELi0ELin1ELi1EEES3_NS0_9assign_opIddEEEEvRT_RKT0_RKT1_, symObjAddr: 0x7340, symBinAddr: 0x100007A80, symSize: 0x38 }
  - { offset: 0x61D32, size: 0x8, addend: 0x0, symName: __ZN5Eigen8internal24call_assignment_no_aliasINS_6MatrixIdLin1ELi1ELi0ELin1ELi1EEENS_13CwiseBinaryOpINS0_17scalar_product_opIddEEKNS_12CwiseUnaryOpINS0_13scalar_sin_opIdEEKNS_12ArrayWrapperIS3_EEEEKNS7_INS0_13scalar_exp_opIdEEKNS4_IS6_KNS7_INS0_18scalar_opposite_opIdEEKNS4_INS0_20scalar_difference_opIddEESC_KNS_14CwiseNullaryOpINS0_18scalar_constant_opIdEEKNS_5ArrayIdLin1ELi1ELi0ELin1ELi1EEEEEEEEESU_EEEEEENS0_9assign_opIddEEEEvRT_RKT0_RKT1_, symObjAddr: 0x7308, symBinAddr: 0x100007A48, symSize: 0x38 }
  - { offset: 0x61DC8, size: 0x8, addend: 0x0, symName: __ZN5Eigen8internal10AssignmentINS_6MatrixIdLin1ELin1ELi0ELin1ELin1EEENS_14CwiseNullaryOpINS0_18scalar_constant_opIdEES3_EENS0_9assign_opIddEENS0_11Dense2DenseEvE3runERS3_RKS7_RKS9_, symObjAddr: 0x72CC, symBinAddr: 0x100007A0C, symSize: 0x3C }
  - { offset: 0x61E18, size: 0x8, addend: 0x0, symName: __ZN5Eigen12DenseStorageIdLin1ELin1ELin1ELi0EE6resizeElll, symObjAddr: 0x721C, symBinAddr: 0x10000795C, symSize: 0xB0 }
  - { offset: 0x61E8F, size: 0x8, addend: 0x0, symName: __ZN5Eigen9DenseBaseINS_14CwiseNullaryOpINS_8internal18scalar_constant_opIdEENS_6MatrixIdLin1ELin1ELi0ELin1ELin1EEEEEEC2Ev, symObjAddr: 0x7208, symBinAddr: 0x100007948, symSize: 0x14 }
  - { offset: 0x61EB1, size: 0x8, addend: 0x0, symName: __ZN5Eigen8internal10AssignmentINS_6MatrixIdLin1ELi1ELi0ELin1ELi1EEENS_14CwiseNullaryOpINS0_18scalar_constant_opIdEES3_EENS0_9assign_opIddEENS0_11Dense2DenseEvE3runERS3_RKS7_RKS9_, symObjAddr: 0x71CC, symBinAddr: 0x10000790C, symSize: 0x3C }
  - { offset: 0x61F1B, size: 0x8, addend: 0x0, symName: __ZN5Eigen9DenseBaseINS_14CwiseNullaryOpINS_8internal18scalar_constant_opIdEENS_6MatrixIdLin1ELi1ELi0ELin1ELi1EEEEEEC2Ev, symObjAddr: 0x71B8, symBinAddr: 0x1000078F8, symSize: 0x14 }
  - { offset: 0x61F3D, size: 0x8, addend: 0x0, symName: __ZN5Eigen8internal10AssignmentINS_6MatrixIdLin1ELi1ELi0ELin1ELi1EEENS_14CwiseNullaryOpINS0_12linspaced_opIdEES3_EENS0_9assign_opIddEENS0_11Dense2DenseEvE3runERS3_RKS7_RKS9_, symObjAddr: 0x717C, symBinAddr: 0x1000078BC, symSize: 0x3C }
  - { offset: 0x61F8D, size: 0x8, addend: 0x0, symName: __ZN5Eigen12DenseStorageIdLin1ELin1ELi1ELi0EE6resizeElll, symObjAddr: 0x70F0, symBinAddr: 0x100007830, symSize: 0x8C }
  - { offset: 0x6203A, size: 0x8, addend: 0x0, symName: __ZNSt15__new_allocatorIcE10deallocateEPcm, symObjAddr: 0x70C8, symBinAddr: 0x100007808, symSize: 0x28 }
  - { offset: 0x620A2, size: 0x8, addend: 0x0, symName: __ZNK5Eigen12DenseStorageIdLin1ELin1ELin1ELi0EE4dataEv, symObjAddr: 0x70B0, symBinAddr: 0x1000077F0, symSize: 0x18 }
  - { offset: 0x620C8, size: 0x8, addend: 0x0, symName: __ZN5Eigen16GenericNumTraitsIdE8digits10Ev, symObjAddr: 0x709C, symBinAddr: 0x1000077DC, symSize: 0x14 }
  - { offset: 0x620E4, size: 0x8, addend: 0x0, symName: __ZNK5Eigen9EigenBaseINS_6MatrixIdLin1ELin1ELi0ELin1ELin1EEEE4colsEv, symObjAddr: 0x707C, symBinAddr: 0x1000077BC, symSize: 0x20 }
  - { offset: 0x6210E, size: 0x8, addend: 0x0, symName: __ZNK5Eigen9EigenBaseINS_6MatrixIdLin1ELin1ELi0ELin1ELin1EEEE4rowsEv, symObjAddr: 0x705C, symBinAddr: 0x10000779C, symSize: 0x20 }
  - { offset: 0x62134, size: 0x8, addend: 0x0, symName: __ZN5Eigen8internal15call_assignmentINS_6MatrixIdLin1ELi1ELi0ELin1ELi1EEENS_13CwiseBinaryOpINS0_13scalar_sum_opIddEEKNS_12ArrayWrapperIS3_EEKNS4_INS0_17scalar_product_opIddEEKNS_14CwiseNullaryOpINS0_18scalar_constant_opIdEEKNS_5ArrayIdLin1ELi1ELi0ELin1ELi1EEEEEKNS4_IS6_KNS4_ISB_SJ_S9_EESL_EEEEEENS0_9assign_opIddEEEEvRT_RKT0_RKT1_NS0_9enable_ifIXntsrNS0_25evaluator_assume_aliasingISV_NS0_16evaluator_traitsISV_E5ShapeEEE5valueEPvE4typeE, symObjAddr: 0x7028, symBinAddr: 0x100007768, symSize: 0x34 }
  - { offset: 0x621CF, size: 0x8, addend: 0x0, symName: __ZN5Eigen8internal9evaluatorINS_15PlainObjectBaseINS_6MatrixIdLin1ELi1ELi0ELin1ELi1EEEEEEC2ERKS5_, symObjAddr: 0x6FCC, symBinAddr: 0x10000770C, symSize: 0x5C }
  - { offset: 0x621FA, size: 0x8, addend: 0x0, symName: __ZN5Eigen8internal24call_assignment_no_aliasINS_5BlockINS_6MatrixIdLin1ELin1ELi0ELin1ELin1EEELin1ELi1ELb1EEENS3_IdLin1ELi1ELi0ELin1ELi1EEENS0_9assign_opIddEEEEvRT_RKT0_RKT1_, symObjAddr: 0x6F94, symBinAddr: 0x1000076D4, symSize: 0x38 }
  - { offset: 0x62294, size: 0x8, addend: 0x0, symName: __ZNK5Eigen12DenseStorageIdLin1ELin1ELin1ELi0EE4colsEv, symObjAddr: 0x6F7C, symBinAddr: 0x1000076BC, symSize: 0x18 }
  - { offset: 0x622BE, size: 0x8, addend: 0x0, symName: __ZNK5Eigen12DenseStorageIdLin1ELin1ELin1ELi0EE4rowsEv, symObjAddr: 0x6F64, symBinAddr: 0x1000076A4, symSize: 0x18 }
  - { offset: 0x6231E, size: 0x8, addend: 0x0, symName: __ZN5Eigen8internal15BlockImpl_denseINS_6MatrixIdLin1ELin1ELi0ELin1ELin1EEELin1ELi1ELb1ELb1EEC2ERS3_l, symObjAddr: 0x6EC0, symBinAddr: 0x100007600, symSize: 0xA4 }
  - { offset: 0x62356, size: 0x8, addend: 0x0, symName: __ZNK5Eigen8internal16binary_evaluatorINS_13CwiseBinaryOpINS0_13scalar_cmp_opIddLNS0_14ComparisonNameE0EEEKNS_12ArrayWrapperIKNS2_INS0_20scalar_difference_opIddEEKNS_6MatrixIdLin1ELi1ELi0ELin1ELi1EEESB_EEEESF_EENS0_10IndexBasedESH_ddE5coeffEll, symObjAddr: 0x6E40, symBinAddr: 0x100007580, symSize: 0x80 }
  - { offset: 0x623A2, size: 0x8, addend: 0x0, symName: __ZNK5Eigen9EigenBaseINS_13CwiseBinaryOpINS_8internal13scalar_cmp_opIddLNS2_14ComparisonNameE0EEEKNS_12ArrayWrapperIKNS1_INS2_20scalar_difference_opIddEEKNS_6MatrixIdLin1ELi1ELi0ELin1ELi1EEESB_EEEESF_EEE4rowsEv, symObjAddr: 0x6E20, symBinAddr: 0x100007560, symSize: 0x20 }
  - { offset: 0x623CC, size: 0x8, addend: 0x0, symName: __ZNK5Eigen9EigenBaseINS_13CwiseBinaryOpINS_8internal13scalar_cmp_opIddLNS2_14ComparisonNameE0EEEKNS_12ArrayWrapperIKNS1_INS2_20scalar_difference_opIddEEKNS_6MatrixIdLin1ELi1ELi0ELin1ELi1EEESB_EEEESF_EEE4colsEv, symObjAddr: 0x6E00, symBinAddr: 0x100007540, symSize: 0x20 }
  - { offset: 0x62410, size: 0x8, addend: 0x0, symName: __ZN5Eigen8internal14evaluator_baseINS_13CwiseBinaryOpINS0_20scalar_difference_opIddEEKNS_6MatrixIdLin1ELi1ELi0ELin1ELi1EEES7_EEED2Ev, symObjAddr: 0x6DEC, symBinAddr: 0x10000752C, symSize: 0x14 }
  - { offset: 0x62450, size: 0x8, addend: 0x0, symName: __ZN5Eigen8internal14evaluator_baseINS_12ArrayWrapperIKNS_13CwiseBinaryOpINS0_20scalar_difference_opIddEEKNS_6MatrixIdLin1ELi1ELi0ELin1ELi1EEES8_EEEEED2Ev, symObjAddr: 0x6DD8, symBinAddr: 0x100007518, symSize: 0x14 }
  - { offset: 0x62490, size: 0x8, addend: 0x0, symName: __ZN5Eigen8internal14evaluator_baseINS_13CwiseBinaryOpINS0_13scalar_cmp_opIddLNS0_14ComparisonNameE0EEEKNS_12ArrayWrapperIKNS2_INS0_20scalar_difference_opIddEEKNS_6MatrixIdLin1ELi1ELi0ELin1ELi1EEESB_EEEESF_EEED2Ev, symObjAddr: 0x6DC4, symBinAddr: 0x100007504, symSize: 0x14 }
  - { offset: 0x624DE, size: 0x8, addend: 0x0, symName: __ZN5Eigen8internal9evaluatorINS_13CwiseBinaryOpINS0_13scalar_cmp_opIddLNS0_14ComparisonNameE0EEEKNS_12ArrayWrapperIKNS2_INS0_20scalar_difference_opIddEEKNS_6MatrixIdLin1ELi1ELi0ELin1ELi1EEESB_EEEESF_EEEC1ERKSG_, symObjAddr: 0x6D9C, symBinAddr: 0x1000074DC, symSize: 0x28 }
  - { offset: 0x6250D, size: 0x8, addend: 0x0, symName: __ZNK5Eigen9EigenBaseINS_13CwiseBinaryOpINS_8internal13scalar_cmp_opIddLNS2_14ComparisonNameE0EEEKNS_12ArrayWrapperIKNS1_INS2_20scalar_difference_opIddEEKNS_6MatrixIdLin1ELi1ELi0ELin1ELi1EEESB_EEEESF_EEE7derivedEv, symObjAddr: 0x6D88, symBinAddr: 0x1000074C8, symSize: 0x14 }
  - { offset: 0x62593, size: 0x8, addend: 0x0, symName: __ZN5Eigen13CwiseBinaryOpINS_8internal13scalar_cmp_opIddLNS1_14ComparisonNameE0EEEKNS_12ArrayWrapperIKNS0_INS1_20scalar_difference_opIddEEKNS_6MatrixIdLin1ELi1ELi0ELin1ELi1EEESA_EEEESE_EC1ERSE_SG_RKS4_, symObjAddr: 0x6C94, symBinAddr: 0x1000073D4, symSize: 0xF4 }
  - { offset: 0x62607, size: 0x8, addend: 0x0, symName: __ZN5Eigen12ArrayWrapperIKNS_13CwiseBinaryOpINS_8internal20scalar_difference_opIddEEKNS_6MatrixIdLin1ELi1ELi0ELin1ELi1EEES7_EEEC1ERKSA_, symObjAddr: 0x6C6C, symBinAddr: 0x1000073AC, symSize: 0x28 }
  - { offset: 0x6265E, size: 0x8, addend: 0x0, symName: __ZN5Eigen17CwiseBinaryOpImplINS_8internal13scalar_cmp_opIddLNS1_14ComparisonNameE0EEEKNS_12ArrayWrapperIKNS_13CwiseBinaryOpINS1_20scalar_difference_opIddEEKNS_6MatrixIdLin1ELi1ELi0ELin1ELi1EEESB_EEEESF_NS_5DenseEEC2Ev, symObjAddr: 0x6C4C, symBinAddr: 0x10000738C, symSize: 0x20 }
  - { offset: 0x6269E, size: 0x8, addend: 0x0, symName: __ZN5Eigen9ArrayBaseINS_13CwiseBinaryOpINS_8internal13scalar_cmp_opIddLNS2_14ComparisonNameE0EEEKNS_12ArrayWrapperIKNS1_INS2_20scalar_difference_opIddEEKNS_6MatrixIdLin1ELi1ELi0ELin1ELi1EEESB_EEEESF_EEEC2Ev, symObjAddr: 0x6C2C, symBinAddr: 0x10000736C, symSize: 0x20 }
  - { offset: 0x626DE, size: 0x8, addend: 0x0, symName: __ZN5Eigen8internal13scalar_cmp_opIddLNS0_14ComparisonNameE0EEC1Ev, symObjAddr: 0x6C18, symBinAddr: 0x100007358, symSize: 0x14 }
  - { offset: 0x62704, size: 0x8, addend: 0x0, symName: __ZNK5Eigen9EigenBaseINS_12ArrayWrapperIKNS_13CwiseBinaryOpINS_8internal20scalar_difference_opIddEEKNS_6MatrixIdLin1ELi1ELi0ELin1ELi1EEES8_EEEEE7derivedEv, symObjAddr: 0x6C04, symBinAddr: 0x100007344, symSize: 0x14 }
  - { offset: 0x62755, size: 0x8, addend: 0x0, symName: __ZN5Eigen12ArrayWrapperIKNS_13CwiseBinaryOpINS_8internal20scalar_difference_opIddEEKNS_6MatrixIdLin1ELi1ELi0ELin1ELi1EEES7_EEEC1ERS9_, symObjAddr: 0x6BD4, symBinAddr: 0x100007314, symSize: 0x30 }
  - { offset: 0x627A6, size: 0x8, addend: 0x0, symName: __ZN5Eigen13CwiseBinaryOpINS_8internal20scalar_difference_opIddEEKNS_6MatrixIdLin1ELi1ELi0ELin1ELi1EEES6_EC1ERKS7_, symObjAddr: 0x6B7C, symBinAddr: 0x1000072BC, symSize: 0x58 }
  - { offset: 0x627EF, size: 0x8, addend: 0x0, symName: __ZN5Eigen9ArrayBaseINS_12ArrayWrapperIKNS_13CwiseBinaryOpINS_8internal20scalar_difference_opIddEEKNS_6MatrixIdLin1ELi1ELi0ELin1ELi1EEES8_EEEEEC2Ev, symObjAddr: 0x6B5C, symBinAddr: 0x10000729C, symSize: 0x20 }
  - { offset: 0x6282F, size: 0x8, addend: 0x0, symName: __ZN5Eigen9DenseBaseINS_13CwiseBinaryOpINS_8internal20scalar_difference_opIddEEKNS_6MatrixIdLin1ELi1ELi0ELin1ELi1EEES7_EEEC2Ev, symObjAddr: 0x6B48, symBinAddr: 0x100007288, symSize: 0x14 }
  - { offset: 0x62857, size: 0x8, addend: 0x0, symName: __ZN5Eigen8internal10redux_implINS0_13scalar_max_opIddLi0EEENS0_15redux_evaluatorINS_12CwiseUnaryOpINS0_13scalar_abs_opIdEEKNS_6MatrixIdLin1ELi1ELi0ELin1ELi1EEEEEEELi3ELi0EE3runISB_EEdRKSC_RKS3_RKT_, symObjAddr: 0x6808, symBinAddr: 0x100006F48, symSize: 0x340 }
  - { offset: 0x62A32, size: 0x8, addend: 0x0, symName: __ZNK5Eigen9EigenBaseINS_12CwiseUnaryOpINS_8internal13scalar_abs_opIdEEKNS_6MatrixIdLin1ELi1ELi0ELin1ELi1EEEEEE4sizeEv, symObjAddr: 0x67D4, symBinAddr: 0x100006F14, symSize: 0x34 }
  - { offset: 0x62A76, size: 0x8, addend: 0x0, symName: __ZN5Eigen8internal14evaluator_baseINS_12CwiseUnaryOpINS0_13scalar_abs_opIdEEKNS_6MatrixIdLin1ELi1ELi0ELin1ELi1EEEEEED2Ev, symObjAddr: 0x67C0, symBinAddr: 0x100006F00, symSize: 0x14 }
  - { offset: 0x62AC4, size: 0x8, addend: 0x0, symName: __ZN5Eigen8internal15redux_evaluatorINS_12CwiseUnaryOpINS0_13scalar_abs_opIdEEKNS_6MatrixIdLin1ELi1ELi0ELin1ELi1EEEEEEC1ERKS8_, symObjAddr: 0x6798, symBinAddr: 0x100006ED8, symSize: 0x28 }
  - { offset: 0x62AF3, size: 0x8, addend: 0x0, symName: __ZNK5Eigen9EigenBaseINS_12CwiseUnaryOpINS_8internal13scalar_abs_opIdEEKNS_6MatrixIdLin1ELi1ELi0ELin1ELi1EEEEEE4colsEv, symObjAddr: 0x6778, symBinAddr: 0x100006EB8, symSize: 0x20 }
  - { offset: 0x62B1D, size: 0x8, addend: 0x0, symName: __ZNK5Eigen9EigenBaseINS_12CwiseUnaryOpINS_8internal13scalar_abs_opIdEEKNS_6MatrixIdLin1ELi1ELi0ELin1ELi1EEEEEE4rowsEv, symObjAddr: 0x6758, symBinAddr: 0x100006E98, symSize: 0x20 }
  - { offset: 0x62B43, size: 0x8, addend: 0x0, symName: __ZN5Eigen8internal15call_assignmentINS_6MatrixIdLin1ELi1ELi0ELin1ELi1EEES3_NS0_9assign_opIddEEEEvRT_RKT0_RKT1_NS0_9enable_ifIXntsrNS0_25evaluator_assume_aliasingIS8_NS0_16evaluator_traitsIS8_E5ShapeEEE5valueEPvE4typeE, symObjAddr: 0x6724, symBinAddr: 0x100006E64, symSize: 0x34 }
  - { offset: 0x62BB3, size: 0x8, addend: 0x0, symName: __ZN5Eigen8internal15call_assignmentINS_6MatrixIdLin1ELi1ELi0ELin1ELi1EEENS_13CwiseBinaryOpINS0_17scalar_product_opIddEEKNS_12CwiseUnaryOpINS0_13scalar_sin_opIdEEKNS_12ArrayWrapperIS3_EEEEKNS7_INS0_13scalar_exp_opIdEEKNS4_IS6_KNS7_INS0_18scalar_opposite_opIdEEKNS4_INS0_20scalar_difference_opIddEESC_KNS_14CwiseNullaryOpINS0_18scalar_constant_opIdEEKNS_5ArrayIdLin1ELi1ELi0ELin1ELi1EEEEEEEEESU_EEEEEENS0_9assign_opIddEEEEvRT_RKT0_RKT1_NS0_9enable_ifIXntsrNS0_25evaluator_assume_aliasingIS16_NS0_16evaluator_traitsIS16_E5ShapeEEE5valueEPvE4typeE, symObjAddr: 0x66F0, symBinAddr: 0x100006E30, symSize: 0x34 }
  - { offset: 0x62C27, size: 0x8, addend: 0x0, symName: __ZNK5Eigen13CwiseBinaryOpINS_8internal17scalar_product_opIddEEKNS_12CwiseUnaryOpINS1_18scalar_opposite_opIdEEKNS0_INS1_20scalar_difference_opIddEEKNS_12ArrayWrapperINS_6MatrixIdLin1ELi1ELi0ELin1ELi1EEEEEKNS_14CwiseNullaryOpINS1_18scalar_constant_opIdEEKNS_5ArrayIdLin1ELi1ELi0ELin1ELi1EEEEEEEEESN_E4colsEv, symObjAddr: 0x66D0, symBinAddr: 0x100006E10, symSize: 0x20 }
  - { offset: 0x62C51, size: 0x8, addend: 0x0, symName: __ZNK5Eigen13CwiseBinaryOpINS_8internal17scalar_product_opIddEEKNS_12CwiseUnaryOpINS1_18scalar_opposite_opIdEEKNS0_INS1_20scalar_difference_opIddEEKNS_12ArrayWrapperINS_6MatrixIdLin1ELi1ELi0ELin1ELi1EEEEEKNS_14CwiseNullaryOpINS1_18scalar_constant_opIdEEKNS_5ArrayIdLin1ELi1ELi0ELin1ELi1EEEEEEEEESN_E4rowsEv, symObjAddr: 0x66B0, symBinAddr: 0x100006DF0, symSize: 0x20 }
  - { offset: 0x62C77, size: 0x8, addend: 0x0, symName: __ZN5Eigen12DenseStorageIdLin1ELin1ELi1ELi0EE4colsEv, symObjAddr: 0x66A8, symBinAddr: 0x100006DE8, symSize: 0x8 }
  - { offset: 0x62C93, size: 0x8, addend: 0x0, symName: __ZNK5Eigen12DenseStorageIdLin1ELin1ELi1ELi0EE4rowsEv, symObjAddr: 0x6690, symBinAddr: 0x100006DD0, symSize: 0x18 }
  - { offset: 0x62CB9, size: 0x8, addend: 0x0, symName: __ZN5Eigen8internal24call_assignment_no_aliasINS_6MatrixIdLin1ELin1ELi0ELin1ELin1EEENS_14CwiseNullaryOpINS0_18scalar_constant_opIdEES3_EENS0_9assign_opIddEEEEvRT_RKT0_RKT1_, symObjAddr: 0x6658, symBinAddr: 0x100006D98, symSize: 0x38 }
  - { offset: 0x62D53, size: 0x8, addend: 0x0, symName: __ZN5Eigen15PlainObjectBaseINS_6MatrixIdLin1ELin1ELi0ELin1ELin1EEEE6resizeEll, symObjAddr: 0x653C, symBinAddr: 0x100006C7C, symSize: 0x11C }
  - { offset: 0x62E44, size: 0x8, addend: 0x0, symName: __ZN5Eigen14CwiseNullaryOpINS_8internal18scalar_constant_opIdEENS_6MatrixIdLin1ELin1ELi0ELin1ELin1EEEEC1EllRKS3_, symObjAddr: 0x647C, symBinAddr: 0x100006BBC, symSize: 0xC0 }
  - { offset: 0x62EB3, size: 0x8, addend: 0x0, symName: __ZN5Eigen10MatrixBaseINS_14CwiseNullaryOpINS_8internal18scalar_constant_opIdEENS_6MatrixIdLin1ELin1ELi0ELin1ELin1EEEEEEC2Ev, symObjAddr: 0x645C, symBinAddr: 0x100006B9C, symSize: 0x20 }
  - { offset: 0x62ED5, size: 0x8, addend: 0x0, symName: __ZN5Eigen8internal24call_assignment_no_aliasINS_6MatrixIdLin1ELi1ELi0ELin1ELi1EEENS_14CwiseNullaryOpINS0_18scalar_constant_opIdEES3_EENS0_9assign_opIddEEEEvRT_RKT0_RKT1_, symObjAddr: 0x6424, symBinAddr: 0x100006B64, symSize: 0x38 }
  - { offset: 0x62FBA, size: 0x8, addend: 0x0, symName: __ZN5Eigen14CwiseNullaryOpINS_8internal18scalar_constant_opIdEENS_6MatrixIdLin1ELi1ELi0ELin1ELi1EEEEC1EllRKS3_, symObjAddr: 0x6330, symBinAddr: 0x100006A70, symSize: 0xF4 }
  - { offset: 0x63029, size: 0x8, addend: 0x0, symName: __ZN5Eigen10MatrixBaseINS_14CwiseNullaryOpINS_8internal18scalar_constant_opIdEENS_6MatrixIdLin1ELi1ELi0ELin1ELi1EEEEEEC2Ev, symObjAddr: 0x6310, symBinAddr: 0x100006A50, symSize: 0x20 }
  - { offset: 0x6304B, size: 0x8, addend: 0x0, symName: __ZN5Eigen8internal24call_assignment_no_aliasINS_6MatrixIdLin1ELi1ELi0ELin1ELi1EEENS_14CwiseNullaryOpINS0_12linspaced_opIdEES3_EENS0_9assign_opIddEEEEvRT_RKT0_RKT1_, symObjAddr: 0x62D8, symBinAddr: 0x100006A18, symSize: 0x38 }
  - { offset: 0x630E5, size: 0x8, addend: 0x0, symName: __ZN5Eigen15PlainObjectBaseINS_6MatrixIdLin1ELi1ELi0ELin1ELi1EEEE6resizeEll, symObjAddr: 0x6188, symBinAddr: 0x1000068C8, symSize: 0x150 }
  - { offset: 0x63176, size: 0x8, addend: 0x0, symName: __ZN5Eigen8internal19variable_if_dynamicIlLi1EE5valueEv, symObjAddr: 0x6180, symBinAddr: 0x1000068C0, symSize: 0x8 }
  - { offset: 0x63192, size: 0x8, addend: 0x0, symName: __ZNK5Eigen8internal19variable_if_dynamicIlLin1EE5valueEv, symObjAddr: 0x6168, symBinAddr: 0x1000068A8, symSize: 0x18 }
  - { offset: 0x6321B, size: 0x8, addend: 0x0, symName: __ZN5Eigen9DenseBaseINS_14CwiseNullaryOpINS_8internal12linspaced_opIdEENS_6MatrixIdLin1ELi1ELi0ELin1ELi1EEEEEEC2Ev, symObjAddr: 0x6154, symBinAddr: 0x100006894, symSize: 0x14 }
  - { offset: 0x632C1, size: 0x8, addend: 0x0, symName: __ZNSt19__ptr_traits_ptr_toIPKcS0_Lb0EE10pointer_toERS0_, symObjAddr: 0x612C, symBinAddr: 0x10000686C, symSize: 0x28 }
  - { offset: 0x63330, size: 0x8, addend: 0x0, symName: __ZNSt7__cxx1112basic_stringIcSt11char_traitsIcESaIcEE11_S_allocateERS3_m, symObjAddr: 0x60E8, symBinAddr: 0x100006828, symSize: 0x44 }
  - { offset: 0x63414, size: 0x8, addend: 0x0, symName: __ZNK5Eigen15PlainObjectBaseINS_6MatrixIdLin1ELin1ELi0ELin1ELin1EEEE5coeffEll, symObjAddr: 0x6094, symBinAddr: 0x1000067D4, symSize: 0x54 }
  - { offset: 0x6345A, size: 0x8, addend: 0x0, symName: __ZN5Eigen8internal25significant_decimals_implIdE3runEv, symObjAddr: 0x6080, symBinAddr: 0x1000067C0, symSize: 0x14 }
  - { offset: 0x63476, size: 0x8, addend: 0x0, symName: __ZNK5Eigen9EigenBaseINS_6MatrixIdLin1ELin1ELi0ELin1ELin1EEEE4sizeEv, symObjAddr: 0x604C, symBinAddr: 0x10000678C, symSize: 0x34 }
  - { offset: 0x6349C, size: 0x8, addend: 0x0, symName: __ZN5Eigen8internal15call_assignmentINS_6MatrixIdLin1ELi1ELi0ELin1ELi1EEENS_13CwiseBinaryOpINS0_13scalar_sum_opIddEEKNS_12ArrayWrapperIS3_EEKNS4_INS0_17scalar_product_opIddEEKNS_14CwiseNullaryOpINS0_18scalar_constant_opIdEEKNS_5ArrayIdLin1ELi1ELi0ELin1ELi1EEEEEKNS4_IS6_KNS4_ISB_SJ_S9_EESL_EEEEEEEEvRT_RKT0_, symObjAddr: 0x6010, symBinAddr: 0x100006750, symSize: 0x3C }
  - { offset: 0x634ED, size: 0x8, addend: 0x0, symName: __ZNK5Eigen9EigenBaseINS_13CwiseBinaryOpINS_8internal13scalar_sum_opIddEEKNS_12ArrayWrapperINS_6MatrixIdLin1ELi1ELi0ELin1ELi1EEEEEKNS1_INS2_17scalar_product_opIddEEKNS_14CwiseNullaryOpINS2_18scalar_constant_opIdEEKNS_5ArrayIdLin1ELi1ELi0ELin1ELi1EEEEEKNS1_IS4_KNS1_ISB_SJ_S9_EESL_EEEEEEE7derivedEv, symObjAddr: 0x5FFC, symBinAddr: 0x10000673C, symSize: 0x14 }
  - { offset: 0x63517, size: 0x8, addend: 0x0, symName: __ZNK5Eigen13CwiseBinaryOpINS_8internal17scalar_product_opIddEEKNS_14CwiseNullaryOpINS1_18scalar_constant_opIdEEKNS_5ArrayIdLin1ELi1ELi0ELin1ELi1EEEEEKNS0_INS1_13scalar_sum_opIddEEKNS0_IS3_SB_KNS_12ArrayWrapperINS_6MatrixIdLin1ELi1ELi0ELin1ELi1EEEEEEESK_EEE4colsEv, symObjAddr: 0x5FDC, symBinAddr: 0x10000671C, symSize: 0x20 }
  - { offset: 0x63541, size: 0x8, addend: 0x0, symName: __ZNK5Eigen13CwiseBinaryOpINS_8internal17scalar_product_opIddEEKNS_14CwiseNullaryOpINS1_18scalar_constant_opIdEEKNS_5ArrayIdLin1ELi1ELi0ELin1ELi1EEEEEKNS0_INS1_13scalar_sum_opIddEEKNS0_IS3_SB_KNS_12ArrayWrapperINS_6MatrixIdLin1ELi1ELi0ELin1ELi1EEEEEEESK_EEE4rowsEv, symObjAddr: 0x5FBC, symBinAddr: 0x1000066FC, symSize: 0x20 }
  - { offset: 0x63585, size: 0x8, addend: 0x0, symName: __ZN5Eigen9DenseBaseINS_13CwiseBinaryOpINS_8internal13scalar_sum_opIddEEKNS_12ArrayWrapperINS_6MatrixIdLin1ELi1ELi0ELin1ELi1EEEEEKNS1_INS2_17scalar_product_opIddEEKNS_14CwiseNullaryOpINS2_18scalar_constant_opIdEEKNS_5ArrayIdLin1ELi1ELi0ELin1ELi1EEEEEKNS1_IS4_KNS1_ISB_SJ_S9_EESL_EEEEEEEC2Ev, symObjAddr: 0x5FA8, symBinAddr: 0x1000066E8, symSize: 0x14 }
  - { offset: 0x635C5, size: 0x8, addend: 0x0, symName: __ZN5Eigen9DenseBaseINS_13CwiseBinaryOpINS_8internal17scalar_product_opIddEEKNS_14CwiseNullaryOpINS2_18scalar_constant_opIdEEKNS_5ArrayIdLin1ELi1ELi0ELin1ELi1EEEEEKNS1_INS2_13scalar_sum_opIddEEKNS1_IS4_SC_KNS_12ArrayWrapperINS_6MatrixIdLin1ELi1ELi0ELin1ELi1EEEEEEESL_EEEEEC2Ev, symObjAddr: 0x5F94, symBinAddr: 0x1000066D4, symSize: 0x14 }
  - { offset: 0x635EB, size: 0x8, addend: 0x0, symName: __ZNK5Eigen13CwiseBinaryOpINS_8internal17scalar_product_opIddEEKNS_14CwiseNullaryOpINS1_18scalar_constant_opIdEEKNS_5ArrayIdLin1ELi1ELi0ELin1ELi1EEEEEKNS_12ArrayWrapperINS_6MatrixIdLin1ELi1ELi0ELin1ELi1EEEEEE4colsEv, symObjAddr: 0x5F74, symBinAddr: 0x1000066B4, symSize: 0x20 }
  - { offset: 0x63615, size: 0x8, addend: 0x0, symName: __ZNK5Eigen13CwiseBinaryOpINS_8internal17scalar_product_opIddEEKNS_14CwiseNullaryOpINS1_18scalar_constant_opIdEEKNS_5ArrayIdLin1ELi1ELi0ELin1ELi1EEEEEKNS_12ArrayWrapperINS_6MatrixIdLin1ELi1ELi0ELin1ELi1EEEEEE4rowsEv, symObjAddr: 0x5F54, symBinAddr: 0x100006694, symSize: 0x20 }
  - { offset: 0x6365E, size: 0x8, addend: 0x0, symName: __ZN5Eigen8internal13scalar_sum_opIddEC1ERKS2_, symObjAddr: 0x5F3C, symBinAddr: 0x10000667C, symSize: 0x18 }
  - { offset: 0x636A7, size: 0x8, addend: 0x0, symName: __ZN5Eigen9DenseBaseINS_13CwiseBinaryOpINS_8internal13scalar_sum_opIddEEKNS1_INS2_17scalar_product_opIddEEKNS_14CwiseNullaryOpINS2_18scalar_constant_opIdEEKNS_5ArrayIdLin1ELi1ELi0ELin1ELi1EEEEEKNS_12ArrayWrapperINS_6MatrixIdLin1ELi1ELi0ELin1ELi1EEEEEEESL_EEEC2Ev, symObjAddr: 0x5F28, symBinAddr: 0x100006668, symSize: 0x14 }
  - { offset: 0x636E7, size: 0x8, addend: 0x0, symName: __ZN5Eigen9DenseBaseINS_13CwiseBinaryOpINS_8internal17scalar_product_opIddEEKNS_14CwiseNullaryOpINS2_18scalar_constant_opIdEEKNS_5ArrayIdLin1ELi1ELi0ELin1ELi1EEEEEKNS_12ArrayWrapperINS_6MatrixIdLin1ELi1ELi0ELin1ELi1EEEEEEEEC2Ev, symObjAddr: 0x5F14, symBinAddr: 0x100006654, symSize: 0x14 }
  - { offset: 0x6370D, size: 0x8, addend: 0x0, symName: __ZN5Eigen8internal9evaluatorINS_15PlainObjectBaseINS_6MatrixIdLin1ELi1ELi0ELin1ELi1EEEEEE8coeffRefEl, symObjAddr: 0x5EEC, symBinAddr: 0x10000662C, symSize: 0x28 }
  - { offset: 0x63761, size: 0x8, addend: 0x0, symName: __ZN5Eigen8internal14evaluator_baseINS_6MatrixIdLin1ELi1ELi0ELin1ELi1EEEED2Ev, symObjAddr: 0x5ED8, symBinAddr: 0x100006618, symSize: 0x14 }
  - { offset: 0x637AF, size: 0x8, addend: 0x0, symName: __ZN5Eigen8internal9evaluatorINS_6MatrixIdLin1ELi1ELi0ELin1ELi1EEEEC1ERKS3_, symObjAddr: 0x5EB0, symBinAddr: 0x1000065F0, symSize: 0x28 }
  - { offset: 0x637E2, size: 0x8, addend: 0x0, symName: __ZN5Eigen8internal9evaluatorINS_6MatrixIdLin1ELi1ELi0ELin1ELi1EEEEC2ERKS3_, symObjAddr: 0x5E88, symBinAddr: 0x1000065C8, symSize: 0x28 }
  - { offset: 0x63811, size: 0x8, addend: 0x0, symName: __ZNK5Eigen9EigenBaseINS_6MatrixIdLin1ELi1ELi0ELin1ELi1EEEE4colsEv, symObjAddr: 0x5E68, symBinAddr: 0x1000065A8, symSize: 0x20 }
  - { offset: 0x6383B, size: 0x8, addend: 0x0, symName: __ZNK5Eigen9EigenBaseINS_6MatrixIdLin1ELi1ELi0ELin1ELi1EEEE4rowsEv, symObjAddr: 0x5E48, symBinAddr: 0x100006588, symSize: 0x20 }
  - { offset: 0x63861, size: 0x8, addend: 0x0, symName: __ZN5Eigen8internal15call_assignmentINS_5BlockINS_6MatrixIdLin1ELin1ELi0ELin1ELin1EEELin1ELi1ELb1EEENS3_IdLin1ELi1ELi0ELin1ELi1EEENS0_9assign_opIddEEEEvRT_RKT0_RKT1_NS0_9enable_ifIXntsrNS0_25evaluator_assume_aliasingISB_NS0_16evaluator_traitsISB_E5ShapeEEE5valueEPvE4typeE, symObjAddr: 0x5E14, symBinAddr: 0x100006554, symSize: 0x34 }
  - { offset: 0x638EF, size: 0x8, addend: 0x0, symName: __ZN5Eigen8internal9assign_opIddEC1Ev, symObjAddr: 0x5E00, symBinAddr: 0x100006540, symSize: 0x14 }
  - { offset: 0x63915, size: 0x8, addend: 0x0, symName: __ZNK5Eigen15PlainObjectBaseINS_6MatrixIdLin1ELin1ELi0ELin1ELin1EEEE4colsEv, symObjAddr: 0x5DE4, symBinAddr: 0x100006524, symSize: 0x1C }
  - { offset: 0x6393F, size: 0x8, addend: 0x0, symName: __ZNK5Eigen15PlainObjectBaseINS_6MatrixIdLin1ELin1ELi0ELin1ELin1EEEE4rowsEv, symObjAddr: 0x5DC8, symBinAddr: 0x100006508, symSize: 0x1C }
  - { offset: 0x6399D, size: 0x8, addend: 0x0, symName: __ZN5Eigen9BlockImplINS_6MatrixIdLin1ELin1ELi0ELin1ELin1EEELin1ELi1ELb1ENS_5DenseEEC2ERS2_l, symObjAddr: 0x5D98, symBinAddr: 0x1000064D8, symSize: 0x30 }
  - { offset: 0x639D5, size: 0x8, addend: 0x0, symName: __ZNK5Eigen9DenseBaseINS_13CwiseBinaryOpINS_8internal13scalar_cmp_opIddLNS2_14ComparisonNameE0EEEKNS_12ArrayWrapperIKNS1_INS2_20scalar_difference_opIddEEKNS_6MatrixIdLin1ELi1ELi0ELin1ELi1EEESB_EEEESF_EEE3allEv, symObjAddr: 0x5C9C, symBinAddr: 0x1000063DC, symSize: 0xFC }
  - { offset: 0x63A91, size: 0x8, addend: 0x0, symName: __ZN5Eigen8internal9evaluatorINS_13CwiseBinaryOpINS0_13scalar_cmp_opIddLNS0_14ComparisonNameE0EEEKNS_12ArrayWrapperIKNS2_INS0_20scalar_difference_opIddEEKNS_6MatrixIdLin1ELi1ELi0ELin1ELi1EEESB_EEEESF_EEED1Ev, symObjAddr: 0x5C7C, symBinAddr: 0x1000063BC, symSize: 0x20 }
  - { offset: 0x63AD5, size: 0x8, addend: 0x0, symName: __ZN5Eigen8internal16binary_evaluatorINS_13CwiseBinaryOpINS0_13scalar_cmp_opIddLNS0_14ComparisonNameE0EEEKNS_12ArrayWrapperIKNS2_INS0_20scalar_difference_opIddEEKNS_6MatrixIdLin1ELi1ELi0ELin1ELi1EEESB_EEEESF_EENS0_10IndexBasedESH_ddED2Ev, symObjAddr: 0x5C54, symBinAddr: 0x100006394, symSize: 0x28 }
  - { offset: 0x63B19, size: 0x8, addend: 0x0, symName: __ZN5Eigen8internal16binary_evaluatorINS_13CwiseBinaryOpINS0_13scalar_cmp_opIddLNS0_14ComparisonNameE0EEEKNS_12ArrayWrapperIKNS2_INS0_20scalar_difference_opIddEEKNS_6MatrixIdLin1ELi1ELi0ELin1ELi1EEESB_EEEESF_EENS0_10IndexBasedESH_ddE4DataD1Ev, symObjAddr: 0x5C24, symBinAddr: 0x100006364, symSize: 0x30 }
  - { offset: 0x63B5C, size: 0x8, addend: 0x0, symName: __ZN5Eigen8internal9evaluatorIKNS_12ArrayWrapperIKNS_13CwiseBinaryOpINS0_20scalar_difference_opIddEEKNS_6MatrixIdLin1ELi1ELi0ELin1ELi1EEES8_EEEEED1Ev, symObjAddr: 0x5C04, symBinAddr: 0x100006344, symSize: 0x20 }
  - { offset: 0x63B9F, size: 0x8, addend: 0x0, symName: __ZN5Eigen8internal9evaluatorINS_12ArrayWrapperIKNS_13CwiseBinaryOpINS0_20scalar_difference_opIddEEKNS_6MatrixIdLin1ELi1ELi0ELin1ELi1EEES8_EEEEED2Ev, symObjAddr: 0x5BE4, symBinAddr: 0x100006324, symSize: 0x20 }
  - { offset: 0x63BE3, size: 0x8, addend: 0x0, symName: __ZN5Eigen8internal15unary_evaluatorINS_12ArrayWrapperIKNS_13CwiseBinaryOpINS0_20scalar_difference_opIddEEKNS_6MatrixIdLin1ELi1ELi0ELin1ELi1EEES8_EEEENS0_10IndexBasedEdED2Ev, symObjAddr: 0x5BC4, symBinAddr: 0x100006304, symSize: 0x20 }
  - { offset: 0x63C27, size: 0x8, addend: 0x0, symName: __ZN5Eigen8internal22evaluator_wrapper_baseINS_12ArrayWrapperIKNS_13CwiseBinaryOpINS0_20scalar_difference_opIddEEKNS_6MatrixIdLin1ELi1ELi0ELin1ELi1EEES8_EEEEED2Ev, symObjAddr: 0x5B9C, symBinAddr: 0x1000062DC, symSize: 0x28 }
  - { offset: 0x63C6B, size: 0x8, addend: 0x0, symName: __ZN5Eigen8internal9evaluatorINS_13CwiseBinaryOpINS0_20scalar_difference_opIddEEKNS_6MatrixIdLin1ELi1ELi0ELin1ELi1EEES7_EEED1Ev, symObjAddr: 0x5B7C, symBinAddr: 0x1000062BC, symSize: 0x20 }
  - { offset: 0x63CAF, size: 0x8, addend: 0x0, symName: __ZN5Eigen8internal16binary_evaluatorINS_13CwiseBinaryOpINS0_20scalar_difference_opIddEEKNS_6MatrixIdLin1ELi1ELi0ELin1ELi1EEES7_EENS0_10IndexBasedES9_ddED2Ev, symObjAddr: 0x5B54, symBinAddr: 0x100006294, symSize: 0x28 }
  - { offset: 0x63CF3, size: 0x8, addend: 0x0, symName: __ZN5Eigen8internal16binary_evaluatorINS_13CwiseBinaryOpINS0_20scalar_difference_opIddEEKNS_6MatrixIdLin1ELi1ELi0ELin1ELi1EEES7_EENS0_10IndexBasedES9_ddE4DataD1Ev, symObjAddr: 0x5B24, symBinAddr: 0x100006264, symSize: 0x30 }
  - { offset: 0x63D19, size: 0x8, addend: 0x0, symName: __ZNK5Eigen9ArrayBaseINS_12ArrayWrapperIKNS_13CwiseBinaryOpINS_8internal20scalar_difference_opIddEEKNS_6MatrixIdLin1ELi1ELi0ELin1ELi1EEES8_EEEEEeqISB_EEKNS2_INS3_13scalar_cmp_opIdNT_6ScalarELNS3_14ComparisonNameE0EEEKSB_KSF_EERKNS0_ISF_EE, symObjAddr: 0x5ABC, symBinAddr: 0x1000061FC, symSize: 0x68 }
  - { offset: 0x63D5C, size: 0x8, addend: 0x0, symName: __ZNK5Eigen10MatrixBaseINS_13CwiseBinaryOpINS_8internal20scalar_difference_opIddEEKNS_6MatrixIdLin1ELi1ELi0ELin1ELi1EEES7_EEE5arrayEv, symObjAddr: 0x5A84, symBinAddr: 0x1000061C4, symSize: 0x38 }
  - { offset: 0x63D86, size: 0x8, addend: 0x0, symName: __ZNK5Eigen9EigenBaseINS_13CwiseBinaryOpINS_8internal20scalar_difference_opIddEEKNS_6MatrixIdLin1ELi1ELi0ELin1ELi1EEES7_EEE7derivedEv, symObjAddr: 0x5A70, symBinAddr: 0x1000061B0, symSize: 0x14 }
  - { offset: 0x63DFB, size: 0x8, addend: 0x0, symName: __ZN5Eigen13CwiseBinaryOpINS_8internal20scalar_difference_opIddEEKNS_6MatrixIdLin1ELi1ELi0ELin1ELi1EEES6_EC1ERS6_S8_RKS3_, symObjAddr: 0x5984, symBinAddr: 0x1000060C4, symSize: 0xEC }
  - { offset: 0x63E78, size: 0x8, addend: 0x0, symName: __ZN5Eigen17CwiseBinaryOpImplINS_8internal20scalar_difference_opIddEEKNS_6MatrixIdLin1ELi1ELi0ELin1ELi1EEES6_NS_5DenseEEC2Ev, symObjAddr: 0x5964, symBinAddr: 0x1000060A4, symSize: 0x20 }
  - { offset: 0x63EB8, size: 0x8, addend: 0x0, symName: __ZN5Eigen10MatrixBaseINS_13CwiseBinaryOpINS_8internal20scalar_difference_opIddEEKNS_6MatrixIdLin1ELi1ELi0ELin1ELi1EEES7_EEEC2Ev, symObjAddr: 0x5944, symBinAddr: 0x100006084, symSize: 0x20 }
  - { offset: 0x63EDE, size: 0x8, addend: 0x0, symName: __ZNK5Eigen9DenseBaseINS_12CwiseUnaryOpINS_8internal13scalar_abs_opIdEEKNS_6MatrixIdLin1ELi1ELi0ELin1ELi1EEEEEE5reduxINS2_13scalar_max_opIddLi0EEEEEdRKT_, symObjAddr: 0x582C, symBinAddr: 0x100005F6C, symSize: 0x118 }
  - { offset: 0x63F79, size: 0x8, addend: 0x0, symName: __ZN5Eigen8internal15redux_evaluatorINS_12CwiseUnaryOpINS0_13scalar_abs_opIdEEKNS_6MatrixIdLin1ELi1ELi0ELin1ELi1EEEEEED1Ev, symObjAddr: 0x580C, symBinAddr: 0x100005F4C, symSize: 0x20 }
  - { offset: 0x63FBC, size: 0x8, addend: 0x0, symName: __ZN5Eigen8internal9evaluatorINS_12CwiseUnaryOpINS0_13scalar_abs_opIdEEKNS_6MatrixIdLin1ELi1ELi0ELin1ELi1EEEEEED2Ev, symObjAddr: 0x57EC, symBinAddr: 0x100005F2C, symSize: 0x20 }
  - { offset: 0x64000, size: 0x8, addend: 0x0, symName: __ZN5Eigen8internal15unary_evaluatorINS_12CwiseUnaryOpINS0_13scalar_abs_opIdEEKNS_6MatrixIdLin1ELi1ELi0ELin1ELi1EEEEENS0_10IndexBasedEdED2Ev, symObjAddr: 0x57C4, symBinAddr: 0x100005F04, symSize: 0x28 }
  - { offset: 0x64044, size: 0x8, addend: 0x0, symName: __ZN5Eigen8internal15unary_evaluatorINS_12CwiseUnaryOpINS0_13scalar_abs_opIdEEKNS_6MatrixIdLin1ELi1ELi0ELin1ELi1EEEEENS0_10IndexBasedEdE4DataD1Ev, symObjAddr: 0x57A0, symBinAddr: 0x100005EE0, symSize: 0x24 }
  - { offset: 0x64087, size: 0x8, addend: 0x0, symName: __ZN5Eigen8internal9evaluatorIKNS_6MatrixIdLin1ELi1ELi0ELin1ELi1EEEED1Ev, symObjAddr: 0x5780, symBinAddr: 0x100005EC0, symSize: 0x20 }
  - { offset: 0x640C7, size: 0x8, addend: 0x0, symName: __ZN5Eigen8internal13scalar_max_opIddLi0EEC1Ev, symObjAddr: 0x576C, symBinAddr: 0x100005EAC, symSize: 0x14 }
  - { offset: 0x640ED, size: 0x8, addend: 0x0, symName: __ZNK5Eigen9EigenBaseINS_12CwiseUnaryOpINS_8internal13scalar_abs_opIdEEKNS_6MatrixIdLin1ELi1ELi0ELin1ELi1EEEEEE7derivedEv, symObjAddr: 0x5758, symBinAddr: 0x100005E98, symSize: 0x14 }
  - { offset: 0x64136, size: 0x8, addend: 0x0, symName: __ZN5Eigen8internal13scalar_abs_opIdEC1ERKS2_, symObjAddr: 0x5740, symBinAddr: 0x100005E80, symSize: 0x18 }
  - { offset: 0x6417F, size: 0x8, addend: 0x0, symName: __ZN5Eigen9DenseBaseINS_12CwiseUnaryOpINS_8internal13scalar_abs_opIdEEKNS_6MatrixIdLin1ELi1ELi0ELin1ELi1EEEEEEC2Ev, symObjAddr: 0x572C, symBinAddr: 0x100005E6C, symSize: 0x14 }
  - { offset: 0x641A1, size: 0x8, addend: 0x0, symName: __ZN5Eigen8internal15call_assignmentINS_6MatrixIdLin1ELi1ELi0ELin1ELi1EEES3_EEvRT_RKT0_, symObjAddr: 0x56F0, symBinAddr: 0x100005E30, symSize: 0x3C }
  - { offset: 0x641EE, size: 0x8, addend: 0x0, symName: __ZN5Eigen8internal15call_assignmentINS_6MatrixIdLin1ELi1ELi0ELin1ELi1EEENS_13CwiseBinaryOpINS0_17scalar_product_opIddEEKNS_12CwiseUnaryOpINS0_13scalar_sin_opIdEEKNS_12ArrayWrapperIS3_EEEEKNS7_INS0_13scalar_exp_opIdEEKNS4_IS6_KNS7_INS0_18scalar_opposite_opIdEEKNS4_INS0_20scalar_difference_opIddEESC_KNS_14CwiseNullaryOpINS0_18scalar_constant_opIdEEKNS_5ArrayIdLin1ELi1ELi0ELin1ELi1EEEEEEEEESU_EEEEEEEEvRT_RKT0_, symObjAddr: 0x56B4, symBinAddr: 0x100005DF4, symSize: 0x3C }
  - { offset: 0x6423F, size: 0x8, addend: 0x0, symName: __ZNK5Eigen9EigenBaseINS_13CwiseBinaryOpINS_8internal17scalar_product_opIddEEKNS_12CwiseUnaryOpINS2_13scalar_sin_opIdEEKNS_12ArrayWrapperINS_6MatrixIdLin1ELi1ELi0ELin1ELi1EEEEEEEKNS5_INS2_13scalar_exp_opIdEEKNS1_IS4_KNS5_INS2_18scalar_opposite_opIdEEKNS1_INS2_20scalar_difference_opIddEESC_KNS_14CwiseNullaryOpINS2_18scalar_constant_opIdEEKNS_5ArrayIdLin1ELi1ELi0ELin1ELi1EEEEEEEEESU_EEEEEEE7derivedEv, symObjAddr: 0x56A0, symBinAddr: 0x100005DE0, symSize: 0x14 }
  - { offset: 0x64269, size: 0x8, addend: 0x0, symName: __ZNK5Eigen12CwiseUnaryOpINS_8internal13scalar_exp_opIdEEKNS_13CwiseBinaryOpINS1_17scalar_product_opIddEEKNS0_INS1_18scalar_opposite_opIdEEKNS4_INS1_20scalar_difference_opIddEEKNS_12ArrayWrapperINS_6MatrixIdLin1ELi1ELi0ELin1ELi1EEEEEKNS_14CwiseNullaryOpINS1_18scalar_constant_opIdEEKNS_5ArrayIdLin1ELi1ELi0ELin1ELi1EEEEEEEEESP_EEE4colsEv, symObjAddr: 0x5680, symBinAddr: 0x100005DC0, symSize: 0x20 }
  - { offset: 0x64293, size: 0x8, addend: 0x0, symName: __ZNK5Eigen12CwiseUnaryOpINS_8internal13scalar_sin_opIdEEKNS_12ArrayWrapperINS_6MatrixIdLin1ELi1ELi0ELin1ELi1EEEEEE4colsEv, symObjAddr: 0x5664, symBinAddr: 0x100005DA4, symSize: 0x1C }
  - { offset: 0x642BD, size: 0x8, addend: 0x0, symName: __ZNK5Eigen12CwiseUnaryOpINS_8internal13scalar_exp_opIdEEKNS_13CwiseBinaryOpINS1_17scalar_product_opIddEEKNS0_INS1_18scalar_opposite_opIdEEKNS4_INS1_20scalar_difference_opIddEEKNS_12ArrayWrapperINS_6MatrixIdLin1ELi1ELi0ELin1ELi1EEEEEKNS_14CwiseNullaryOpINS1_18scalar_constant_opIdEEKNS_5ArrayIdLin1ELi1ELi0ELin1ELi1EEEEEEEEESP_EEE4rowsEv, symObjAddr: 0x5644, symBinAddr: 0x100005D84, symSize: 0x20 }
  - { offset: 0x642E7, size: 0x8, addend: 0x0, symName: __ZNK5Eigen12CwiseUnaryOpINS_8internal13scalar_sin_opIdEEKNS_12ArrayWrapperINS_6MatrixIdLin1ELi1ELi0ELin1ELi1EEEEEE4rowsEv, symObjAddr: 0x5628, symBinAddr: 0x100005D68, symSize: 0x1C }
  - { offset: 0x6432B, size: 0x8, addend: 0x0, symName: __ZN5Eigen9DenseBaseINS_13CwiseBinaryOpINS_8internal17scalar_product_opIddEEKNS_12CwiseUnaryOpINS2_13scalar_sin_opIdEEKNS_12ArrayWrapperINS_6MatrixIdLin1ELi1ELi0ELin1ELi1EEEEEEEKNS5_INS2_13scalar_exp_opIdEEKNS1_IS4_KNS5_INS2_18scalar_opposite_opIdEEKNS1_INS2_20scalar_difference_opIddEESC_KNS_14CwiseNullaryOpINS2_18scalar_constant_opIdEEKNS_5ArrayIdLin1ELi1ELi0ELin1ELi1EEEEEEEEESU_EEEEEEEC2Ev, symObjAddr: 0x5614, symBinAddr: 0x100005D54, symSize: 0x14 }
  - { offset: 0x64370, size: 0x8, addend: 0x0, symName: __ZN5Eigen8internal13scalar_exp_opIdEC1ERKS2_, symObjAddr: 0x55FC, symBinAddr: 0x100005D3C, symSize: 0x18 }
  - { offset: 0x643B9, size: 0x8, addend: 0x0, symName: __ZN5Eigen9DenseBaseINS_12CwiseUnaryOpINS_8internal13scalar_exp_opIdEEKNS_13CwiseBinaryOpINS2_17scalar_product_opIddEEKNS1_INS2_18scalar_opposite_opIdEEKNS5_INS2_20scalar_difference_opIddEEKNS_12ArrayWrapperINS_6MatrixIdLin1ELi1ELi0ELin1ELi1EEEEEKNS_14CwiseNullaryOpINS2_18scalar_constant_opIdEEKNS_5ArrayIdLin1ELi1ELi0ELin1ELi1EEEEEEEEESQ_EEEEEC2Ev, symObjAddr: 0x55E8, symBinAddr: 0x100005D28, symSize: 0x14 }
  - { offset: 0x643DF, size: 0x8, addend: 0x0, symName: __ZNK5Eigen13CwiseBinaryOpINS_8internal20scalar_difference_opIddEEKNS_12ArrayWrapperINS_6MatrixIdLin1ELi1ELi0ELin1ELi1EEEEEKNS_14CwiseNullaryOpINS1_18scalar_constant_opIdEEKNS_5ArrayIdLin1ELi1ELi0ELin1ELi1EEEEEE4colsEv, symObjAddr: 0x55CC, symBinAddr: 0x100005D0C, symSize: 0x1C }
  - { offset: 0x64409, size: 0x8, addend: 0x0, symName: __ZNK5Eigen12CwiseUnaryOpINS_8internal18scalar_opposite_opIdEEKNS_13CwiseBinaryOpINS1_20scalar_difference_opIddEEKNS_12ArrayWrapperINS_6MatrixIdLin1ELi1ELi0ELin1ELi1EEEEEKNS_14CwiseNullaryOpINS1_18scalar_constant_opIdEEKNS_5ArrayIdLin1ELi1ELi0ELin1ELi1EEEEEEEE4colsEv, symObjAddr: 0x55AC, symBinAddr: 0x100005CEC, symSize: 0x20 }
  - { offset: 0x64433, size: 0x8, addend: 0x0, symName: __ZNK5Eigen13CwiseBinaryOpINS_8internal20scalar_difference_opIddEEKNS_12ArrayWrapperINS_6MatrixIdLin1ELi1ELi0ELin1ELi1EEEEEKNS_14CwiseNullaryOpINS1_18scalar_constant_opIdEEKNS_5ArrayIdLin1ELi1ELi0ELin1ELi1EEEEEE4rowsEv, symObjAddr: 0x558C, symBinAddr: 0x100005CCC, symSize: 0x20 }
  - { offset: 0x6445D, size: 0x8, addend: 0x0, symName: __ZNK5Eigen12CwiseUnaryOpINS_8internal18scalar_opposite_opIdEEKNS_13CwiseBinaryOpINS1_20scalar_difference_opIddEEKNS_12ArrayWrapperINS_6MatrixIdLin1ELi1ELi0ELin1ELi1EEEEEKNS_14CwiseNullaryOpINS1_18scalar_constant_opIdEEKNS_5ArrayIdLin1ELi1ELi0ELin1ELi1EEEEEEEE4rowsEv, symObjAddr: 0x556C, symBinAddr: 0x100005CAC, symSize: 0x20 }
  - { offset: 0x644A6, size: 0x8, addend: 0x0, symName: __ZN5Eigen8internal17scalar_product_opIddEC1ERKS2_, symObjAddr: 0x5554, symBinAddr: 0x100005C94, symSize: 0x18 }
  - { offset: 0x644EF, size: 0x8, addend: 0x0, symName: __ZN5Eigen9DenseBaseINS_13CwiseBinaryOpINS_8internal17scalar_product_opIddEEKNS_12CwiseUnaryOpINS2_18scalar_opposite_opIdEEKNS1_INS2_20scalar_difference_opIddEEKNS_12ArrayWrapperINS_6MatrixIdLin1ELi1ELi0ELin1ELi1EEEEEKNS_14CwiseNullaryOpINS2_18scalar_constant_opIdEEKNS_5ArrayIdLin1ELi1ELi0ELin1ELi1EEEEEEEEESO_EEEC2Ev, symObjAddr: 0x5540, symBinAddr: 0x100005C80, symSize: 0x14 }
  - { offset: 0x64534, size: 0x8, addend: 0x0, symName: __ZN5Eigen8internal18scalar_opposite_opIdEC1ERKS2_, symObjAddr: 0x5528, symBinAddr: 0x100005C68, symSize: 0x18 }
  - { offset: 0x6457D, size: 0x8, addend: 0x0, symName: __ZN5Eigen9DenseBaseINS_12CwiseUnaryOpINS_8internal18scalar_opposite_opIdEEKNS_13CwiseBinaryOpINS2_20scalar_difference_opIddEEKNS_12ArrayWrapperINS_6MatrixIdLin1ELi1ELi0ELin1ELi1EEEEEKNS_14CwiseNullaryOpINS2_18scalar_constant_opIdEEKNS_5ArrayIdLin1ELi1ELi0ELin1ELi1EEEEEEEEEEC2Ev, symObjAddr: 0x5514, symBinAddr: 0x100005C54, symSize: 0x14 }
  - { offset: 0x645A3, size: 0x8, addend: 0x0, symName: __ZNK5Eigen14CwiseNullaryOpINS_8internal18scalar_constant_opIdEEKNS_5ArrayIdLin1ELi1ELi0ELin1ELi1EEEE4colsEv, symObjAddr: 0x54FC, symBinAddr: 0x100005C3C, symSize: 0x18 }
  - { offset: 0x645CD, size: 0x8, addend: 0x0, symName: __ZNK5Eigen14CwiseNullaryOpINS_8internal18scalar_constant_opIdEEKNS_5ArrayIdLin1ELi1ELi0ELin1ELi1EEEE4rowsEv, symObjAddr: 0x54E0, symBinAddr: 0x100005C20, symSize: 0x1C }
  - { offset: 0x64616, size: 0x8, addend: 0x0, symName: __ZN5Eigen8internal20scalar_difference_opIddEC1ERKS2_, symObjAddr: 0x54C8, symBinAddr: 0x100005C08, symSize: 0x18 }
  - { offset: 0x6465F, size: 0x8, addend: 0x0, symName: __ZN5Eigen9DenseBaseINS_13CwiseBinaryOpINS_8internal20scalar_difference_opIddEEKNS_12ArrayWrapperINS_6MatrixIdLin1ELi1ELi0ELin1ELi1EEEEEKNS_14CwiseNullaryOpINS2_18scalar_constant_opIdEEKNS_5ArrayIdLin1ELi1ELi0ELin1ELi1EEEEEEEEC2Ev, symObjAddr: 0x54B4, symBinAddr: 0x100005BF4, symSize: 0x14 }
  - { offset: 0x646AC, size: 0x8, addend: 0x0, symName: __ZN5Eigen8internal18scalar_constant_opIdEC1ERKS2_, symObjAddr: 0x548C, symBinAddr: 0x100005BCC, symSize: 0x28 }
  - { offset: 0x6471D, size: 0x8, addend: 0x0, symName: __ZN5Eigen8internal19variable_if_dynamicIlLi1EEC1El, symObjAddr: 0x5434, symBinAddr: 0x100005B74, symSize: 0x58 }
  - { offset: 0x64787, size: 0x8, addend: 0x0, symName: __ZN5Eigen8internal19variable_if_dynamicIlLin1EEC1El, symObjAddr: 0x5410, symBinAddr: 0x100005B50, symSize: 0x24 }
  - { offset: 0x647D0, size: 0x8, addend: 0x0, symName: __ZN5Eigen9DenseBaseINS_14CwiseNullaryOpINS_8internal18scalar_constant_opIdEEKNS_5ArrayIdLin1ELi1ELi0ELin1ELi1EEEEEEC2Ev, symObjAddr: 0x53FC, symBinAddr: 0x100005B3C, symSize: 0x14 }
  - { offset: 0x647F6, size: 0x8, addend: 0x0, symName: __ZNK5Eigen15PlainObjectBaseINS_6MatrixIdLin1ELi1ELi0ELin1ELi1EEEE4colsEv, symObjAddr: 0x53E4, symBinAddr: 0x100005B24, symSize: 0x18 }
  - { offset: 0x64820, size: 0x8, addend: 0x0, symName: __ZNK5Eigen15PlainObjectBaseINS_6MatrixIdLin1ELi1ELi0ELin1ELi1EEEE4rowsEv, symObjAddr: 0x53C8, symBinAddr: 0x100005B08, symSize: 0x1C }
  - { offset: 0x64869, size: 0x8, addend: 0x0, symName: __ZN5Eigen8internal13scalar_sin_opIdEC1ERKS2_, symObjAddr: 0x53B0, symBinAddr: 0x100005AF0, symSize: 0x18 }
  - { offset: 0x648B2, size: 0x8, addend: 0x0, symName: __ZN5Eigen9DenseBaseINS_12CwiseUnaryOpINS_8internal13scalar_sin_opIdEEKNS_12ArrayWrapperINS_6MatrixIdLin1ELi1ELi0ELin1ELi1EEEEEEEEC2Ev, symObjAddr: 0x539C, symBinAddr: 0x100005ADC, symSize: 0x14 }
  - { offset: 0x648F2, size: 0x8, addend: 0x0, symName: __ZN5Eigen9DenseBaseINS_12ArrayWrapperINS_6MatrixIdLin1ELi1ELi0ELin1ELi1EEEEEEC2Ev, symObjAddr: 0x5388, symBinAddr: 0x100005AC8, symSize: 0x14 }
  - { offset: 0x64918, size: 0x8, addend: 0x0, symName: __ZN5Eigen15PlainObjectBaseINS_6MatrixIdLin1ELin1ELi0ELin1ELin1EEEE12_set_noaliasINS_14CwiseNullaryOpINS_8internal18scalar_constant_opIdEES2_EEEERS2_RKNS_9DenseBaseIT_EE, symObjAddr: 0x532C, symBinAddr: 0x100005A6C, symSize: 0x5C }
  - { offset: 0x64962, size: 0x8, addend: 0x0, symName: __ZN5Eigen15PlainObjectBaseINS_6MatrixIdLin1ELin1ELi0ELin1ELin1EEEE10resizeLikeINS_14CwiseNullaryOpINS_8internal18scalar_constant_opIdEES2_EEEEvRKNS_9EigenBaseIT_EE, symObjAddr: 0x5240, symBinAddr: 0x100005980, symSize: 0xEC }
  - { offset: 0x64A22, size: 0x8, addend: 0x0, symName: __ZNK5Eigen14CwiseNullaryOpINS_8internal18scalar_constant_opIdEENS_6MatrixIdLin1ELin1ELi0ELin1ELin1EEEE4colsEv, symObjAddr: 0x5220, symBinAddr: 0x100005960, symSize: 0x20 }
  - { offset: 0x64A4C, size: 0x8, addend: 0x0, symName: __ZNK5Eigen14CwiseNullaryOpINS_8internal18scalar_constant_opIdEENS_6MatrixIdLin1ELin1ELi0ELin1ELin1EEEE4rowsEv, symObjAddr: 0x5204, symBinAddr: 0x100005944, symSize: 0x1C }
  - { offset: 0x64A72, size: 0x8, addend: 0x0, symName: __ZN5Eigen15PlainObjectBaseINS_6MatrixIdLin1ELin1ELi0ELin1ELin1EEEE22_check_template_paramsEv, symObjAddr: 0x51FC, symBinAddr: 0x10000593C, symSize: 0x8 }
  - { offset: 0x64AA8, size: 0x8, addend: 0x0, symName: __ZN5Eigen12DenseStorageIdLin1ELin1ELin1ELi0EEC1Ev, symObjAddr: 0x51D0, symBinAddr: 0x100005910, symSize: 0x2C }
  - { offset: 0x64AE8, size: 0x8, addend: 0x0, symName: __ZN5Eigen9DenseBaseINS_6MatrixIdLin1ELin1ELi0ELin1ELin1EEEEC2Ev, symObjAddr: 0x51BC, symBinAddr: 0x1000058FC, symSize: 0x14 }
  - { offset: 0x64B0A, size: 0x8, addend: 0x0, symName: __ZN5Eigen9DenseBaseINS_6MatrixIdLin1ELin1ELi0ELin1ELin1EEEE11NullaryExprINS_8internal18scalar_constant_opIdEEEEKNS_14CwiseNullaryOpIT_S2_EEllRKS9_, symObjAddr: 0x517C, symBinAddr: 0x1000058BC, symSize: 0x40 }
  - { offset: 0x64B60, size: 0x8, addend: 0x0, symName: __ZN5Eigen15PlainObjectBaseINS_6MatrixIdLin1ELi1ELi0ELin1ELi1EEEE12_set_noaliasINS_14CwiseNullaryOpINS_8internal18scalar_constant_opIdEES2_EEEERS2_RKNS_9DenseBaseIT_EE, symObjAddr: 0x5120, symBinAddr: 0x100005860, symSize: 0x5C }
  - { offset: 0x64BAA, size: 0x8, addend: 0x0, symName: __ZN5Eigen15PlainObjectBaseINS_6MatrixIdLin1ELi1ELi0ELin1ELi1EEEE10resizeLikeINS_14CwiseNullaryOpINS_8internal18scalar_constant_opIdEES2_EEEEvRKNS_9EigenBaseIT_EE, symObjAddr: 0x4FD0, symBinAddr: 0x100005710, symSize: 0x150 }
  - { offset: 0x64C59, size: 0x8, addend: 0x0, symName: __ZNK5Eigen14CwiseNullaryOpINS_8internal18scalar_constant_opIdEENS_6MatrixIdLin1ELi1ELi0ELin1ELi1EEEE4colsEv, symObjAddr: 0x4FB8, symBinAddr: 0x1000056F8, symSize: 0x18 }
  - { offset: 0x64C83, size: 0x8, addend: 0x0, symName: __ZNK5Eigen14CwiseNullaryOpINS_8internal18scalar_constant_opIdEENS_6MatrixIdLin1ELi1ELi0ELin1ELi1EEEE4rowsEv, symObjAddr: 0x4F9C, symBinAddr: 0x1000056DC, symSize: 0x1C }
  - { offset: 0x64CA9, size: 0x8, addend: 0x0, symName: __ZN5Eigen9DenseBaseINS_6MatrixIdLin1ELi1ELi0ELin1ELi1EEEE11NullaryExprINS_8internal18scalar_constant_opIdEEEEKNS_14CwiseNullaryOpIT_S2_EElRKS9_, symObjAddr: 0x4F60, symBinAddr: 0x1000056A0, symSize: 0x3C }
  - { offset: 0x64CEB, size: 0x8, addend: 0x0, symName: __ZN5Eigen8internal24conditional_aligned_freeILb1EEEvPv, symObjAddr: 0x4F40, symBinAddr: 0x100005680, symSize: 0x20 }
  - { offset: 0x64D23, size: 0x8, addend: 0x0, symName: __ZN5Eigen15PlainObjectBaseINS_6MatrixIdLin1ELi1ELi0ELin1ELi1EEEE12_set_noaliasINS_14CwiseNullaryOpINS_8internal12linspaced_opIdEES2_EEEERS2_RKNS_9DenseBaseIT_EE, symObjAddr: 0x4EE4, symBinAddr: 0x100005624, symSize: 0x5C }
  - { offset: 0x64D6D, size: 0x8, addend: 0x0, symName: __ZN5Eigen15PlainObjectBaseINS_6MatrixIdLin1ELi1ELi0ELin1ELi1EEEE10resizeLikeINS_14CwiseNullaryOpINS_8internal12linspaced_opIdEES2_EEEEvRKNS_9EigenBaseIT_EE, symObjAddr: 0x4D94, symBinAddr: 0x1000054D4, symSize: 0x150 }
  - { offset: 0x64E1C, size: 0x8, addend: 0x0, symName: __ZNK5Eigen14CwiseNullaryOpINS_8internal12linspaced_opIdEENS_6MatrixIdLin1ELi1ELi0ELin1ELi1EEEE4colsEv, symObjAddr: 0x4D7C, symBinAddr: 0x1000054BC, symSize: 0x18 }
  - { offset: 0x64E46, size: 0x8, addend: 0x0, symName: __ZNK5Eigen14CwiseNullaryOpINS_8internal12linspaced_opIdEENS_6MatrixIdLin1ELi1ELi0ELin1ELi1EEEE4rowsEv, symObjAddr: 0x4D60, symBinAddr: 0x1000054A0, symSize: 0x1C }
  - { offset: 0x64E6C, size: 0x8, addend: 0x0, symName: __ZN5Eigen15PlainObjectBaseINS_6MatrixIdLin1ELi1ELi0ELin1ELi1EEEE22_check_template_paramsEv, symObjAddr: 0x4D58, symBinAddr: 0x100005498, symSize: 0x8 }
  - { offset: 0x64EA2, size: 0x8, addend: 0x0, symName: __ZN5Eigen12DenseStorageIdLin1ELin1ELi1ELi0EEC1Ev, symObjAddr: 0x4D34, symBinAddr: 0x100005474, symSize: 0x24 }
  - { offset: 0x64EE2, size: 0x8, addend: 0x0, symName: __ZN5Eigen9DenseBaseINS_6MatrixIdLin1ELi1ELi0ELin1ELi1EEEEC2Ev, symObjAddr: 0x4D20, symBinAddr: 0x100005460, symSize: 0x14 }
  - { offset: 0x64F53, size: 0x8, addend: 0x0, symName: __ZN5Eigen14CwiseNullaryOpINS_8internal12linspaced_opIdEENS_6MatrixIdLin1ELi1ELi0ELin1ELi1EEEEC1EllRKS3_, symObjAddr: 0x4C18, symBinAddr: 0x100005358, symSize: 0x108 }
  - { offset: 0x64FC2, size: 0x8, addend: 0x0, symName: __ZN5Eigen10MatrixBaseINS_14CwiseNullaryOpINS_8internal12linspaced_opIdEENS_6MatrixIdLin1ELi1ELi0ELin1ELi1EEEEEEC2Ev, symObjAddr: 0x4BF8, symBinAddr: 0x100005338, symSize: 0x20 }
  - { offset: 0x65029, size: 0x8, addend: 0x0, symName: __ZN5Eigen8internal17linspaced_op_implIdLb0EEC1ERKdS4_l, symObjAddr: 0x4AF4, symBinAddr: 0x100005234, symSize: 0x104 }
  - { offset: 0x650B4, size: 0x8, addend: 0x0, symName: __ZNSt7__cxx1112basic_stringIcSt11char_traitsIcESaIcEE9_M_mutateEmmPKcm, symObjAddr: 0x499C, symBinAddr: 0x1000050DC, symSize: 0x158 }
  - { offset: 0x65168, size: 0x8, addend: 0x0, symName: __ZNSt7__cxx1112basic_stringIcSt11char_traitsIcESaIcEE13_S_copy_charsIPKcEEvPcT_S9_, symObjAddr: 0x4954, symBinAddr: 0x100005094, symSize: 0x48 }
  - { offset: 0x651E5, size: 0x8, addend: 0x0, symName: __ZNKSt7__cxx1112basic_stringIcSt11char_traitsIcESaIcEE8max_sizeEv, symObjAddr: 0x48F8, symBinAddr: 0x100005038, symSize: 0x5C }
  - { offset: 0x652C7, size: 0x8, addend: 0x0, symName: __ZNKSt7__cxx1112basic_stringIcSt11char_traitsIcESaIcEE13_M_local_dataEv, symObjAddr: 0x48D8, symBinAddr: 0x100005018, symSize: 0x20 }
  - { offset: 0x652ED, size: 0x8, addend: 0x0, symName: __ZNSt7__cxx1112basic_stringIcSt11char_traitsIcESaIcEE7_S_copyEPcPKcm, symObjAddr: 0x488C, symBinAddr: 0x100004FCC, symSize: 0x4C }
  - { offset: 0x65340, size: 0x8, addend: 0x0, symName: __ZNSt7__cxx1112basic_stringIcSt11char_traitsIcESaIcEE9_M_createERmm, symObjAddr: 0x4798, symBinAddr: 0x100004ED8, symSize: 0xF4 }
  - { offset: 0x6538A, size: 0x8, addend: 0x0, symName: __ZNKSt7__cxx1112basic_stringIcSt11char_traitsIcESaIcEE8capacityEv, symObjAddr: 0x4714, symBinAddr: 0x100004E54, symSize: 0x84 }
  - { offset: 0x653C5, size: 0x8, addend: 0x0, symName: __ZNSt7__cxx1112basic_stringIcSt11char_traitsIcESaIcEE10_M_destroyEm, symObjAddr: 0x46B0, symBinAddr: 0x100004DF0, symSize: 0x64 }
  - { offset: 0x65455, size: 0x8, addend: 0x0, symName: __ZNSt19__ptr_traits_ptr_toIPccLb0EE10pointer_toERc, symObjAddr: 0x4688, symBinAddr: 0x100004DC8, symSize: 0x28 }
  - { offset: 0x654CA, size: 0x8, addend: 0x0, symName: __ZN5Eigen8internal12print_matrixINS_6MatrixIdLin1ELin1ELi0ELin1ELin1EEEEERSoS4_RKT_RKNS_8IOFormatE, symObjAddr: 0x412C, symBinAddr: 0x10000486C, symSize: 0x55C }
  - { offset: 0x6562E, size: 0x8, addend: 0x0, symName: __ZNK5Eigen9DenseBaseINS_6MatrixIdLin1ELin1ELi0ELin1ELin1EEEE4evalEv, symObjAddr: 0x4110, symBinAddr: 0x100004850, symSize: 0x1C }
  - { offset: 0x6568C, size: 0x8, addend: 0x0, symName: __ZN5Eigen10WithFormatINS_6MatrixIdLin1ELin1ELi0ELin1ELin1EEEEC1ERKS2_RKNS_8IOFormatE, symObjAddr: 0x40D4, symBinAddr: 0x100004814, symSize: 0x3C }
  - { offset: 0x656E6, size: 0x8, addend: 0x0, symName: __ZN5Eigen8IOFormatC1ERKS0_, symObjAddr: 0x3F54, symBinAddr: 0x100004694, symSize: 0x180 }
  - { offset: 0x65715, size: 0x8, addend: 0x0, symName: __ZNK5Eigen9EigenBaseINS_6MatrixIdLin1ELin1ELi0ELin1ELin1EEEE7derivedEv, symObjAddr: 0x3F40, symBinAddr: 0x100004680, symSize: 0x14 }
  - { offset: 0x6573F, size: 0x8, addend: 0x0, symName: __ZN5Eigen15PlainObjectBaseINS_6MatrixIdLin1ELi1ELi0ELin1ELi1EEEE4_setINS_13CwiseBinaryOpINS_8internal13scalar_sum_opIddEEKNS_12ArrayWrapperIS2_EEKNS5_INS6_17scalar_product_opIddEEKNS_14CwiseNullaryOpINS6_18scalar_constant_opIdEEKNS_5ArrayIdLin1ELi1ELi0ELin1ELi1EEEEEKNS5_IS8_KNS5_ISD_SL_SB_EESN_EEEEEEEERS2_RKNS_9DenseBaseIT_EE, symObjAddr: 0x3EF8, symBinAddr: 0x100004638, symSize: 0x48 }
  - { offset: 0x657CE, size: 0x8, addend: 0x0, symName: __ZN5Eigen13CwiseBinaryOpINS_8internal13scalar_sum_opIddEEKNS_12ArrayWrapperINS_6MatrixIdLin1ELi1ELi0ELin1ELi1EEEEEKNS0_INS1_17scalar_product_opIddEEKNS_14CwiseNullaryOpINS1_18scalar_constant_opIdEEKNS_5ArrayIdLin1ELi1ELi0ELin1ELi1EEEEEKNS0_IS3_KNS0_ISA_SI_S8_EESK_EEEEEC1ERS8_RSO_RKS3_, symObjAddr: 0x3E04, symBinAddr: 0x100004544, symSize: 0xF4 }
  - { offset: 0x65845, size: 0x8, addend: 0x0, symName: __ZN5Eigen13CwiseBinaryOpINS_8internal17scalar_product_opIddEEKNS_14CwiseNullaryOpINS1_18scalar_constant_opIdEEKNS_5ArrayIdLin1ELi1ELi0ELin1ELi1EEEEEKNS0_INS1_13scalar_sum_opIddEEKNS0_IS3_SB_KNS_12ArrayWrapperINS_6MatrixIdLin1ELi1ELi0ELin1ELi1EEEEEEESK_EEEC1ERKSN_, symObjAddr: 0x3D94, symBinAddr: 0x1000044D4, symSize: 0x70 }
  - { offset: 0x6589C, size: 0x8, addend: 0x0, symName: __ZN5Eigen17CwiseBinaryOpImplINS_8internal13scalar_sum_opIddEEKNS_12ArrayWrapperINS_6MatrixIdLin1ELi1ELi0ELin1ELi1EEEEEKNS_13CwiseBinaryOpINS1_17scalar_product_opIddEEKNS_14CwiseNullaryOpINS1_18scalar_constant_opIdEEKNS_5ArrayIdLin1ELi1ELi0ELin1ELi1EEEEEKNS9_IS3_KNS9_ISB_SJ_S8_EESL_EEEENS_5DenseEEC2Ev, symObjAddr: 0x3D74, symBinAddr: 0x1000044B4, symSize: 0x20 }
  - { offset: 0x658DC, size: 0x8, addend: 0x0, symName: __ZN5Eigen9ArrayBaseINS_13CwiseBinaryOpINS_8internal13scalar_sum_opIddEEKNS_12ArrayWrapperINS_6MatrixIdLin1ELi1ELi0ELin1ELi1EEEEEKNS1_INS2_17scalar_product_opIddEEKNS_14CwiseNullaryOpINS2_18scalar_constant_opIdEEKNS_5ArrayIdLin1ELi1ELi0ELin1ELi1EEEEEKNS1_IS4_KNS1_ISB_SJ_S9_EESL_EEEEEEEC2Ev, symObjAddr: 0x3D54, symBinAddr: 0x100004494, symSize: 0x20 }
  - { offset: 0x65902, size: 0x8, addend: 0x0, symName: __ZNK5Eigen9EigenBaseINS_13CwiseBinaryOpINS_8internal17scalar_product_opIddEEKNS_14CwiseNullaryOpINS2_18scalar_constant_opIdEEKNS_5ArrayIdLin1ELi1ELi0ELin1ELi1EEEEEKNS1_INS2_13scalar_sum_opIddEEKNS1_IS4_SC_KNS_12ArrayWrapperINS_6MatrixIdLin1ELi1ELi0ELin1ELi1EEEEEEESL_EEEEE7derivedEv, symObjAddr: 0x3D40, symBinAddr: 0x100004480, symSize: 0x14 }
  - { offset: 0x65977, size: 0x8, addend: 0x0, symName: __ZN5Eigen13CwiseBinaryOpINS_8internal17scalar_product_opIddEEKNS_14CwiseNullaryOpINS1_18scalar_constant_opIdEEKNS_5ArrayIdLin1ELi1ELi0ELin1ELi1EEEEEKNS0_INS1_13scalar_sum_opIddEEKNS0_IS3_SB_KNS_12ArrayWrapperINS_6MatrixIdLin1ELi1ELi0ELin1ELi1EEEEEEESK_EEEC1ERSB_RSM_RKS3_, symObjAddr: 0x3C4C, symBinAddr: 0x10000438C, symSize: 0xF4 }
  - { offset: 0x659EE, size: 0x8, addend: 0x0, symName: __ZN5Eigen13CwiseBinaryOpINS_8internal13scalar_sum_opIddEEKNS0_INS1_17scalar_product_opIddEEKNS_14CwiseNullaryOpINS1_18scalar_constant_opIdEEKNS_5ArrayIdLin1ELi1ELi0ELin1ELi1EEEEEKNS_12ArrayWrapperINS_6MatrixIdLin1ELi1ELi0ELin1ELi1EEEEEEESK_EC1ERKSL_, symObjAddr: 0x3BDC, symBinAddr: 0x10000431C, symSize: 0x70 }
  - { offset: 0x65A45, size: 0x8, addend: 0x0, symName: __ZN5Eigen17CwiseBinaryOpImplINS_8internal17scalar_product_opIddEEKNS_14CwiseNullaryOpINS1_18scalar_constant_opIdEEKNS_5ArrayIdLin1ELi1ELi0ELin1ELi1EEEEEKNS_13CwiseBinaryOpINS1_13scalar_sum_opIddEEKNSC_IS3_SB_KNS_12ArrayWrapperINS_6MatrixIdLin1ELi1ELi0ELin1ELi1EEEEEEESL_EENS_5DenseEEC2Ev, symObjAddr: 0x3BBC, symBinAddr: 0x1000042FC, symSize: 0x20 }
  - { offset: 0x65A85, size: 0x8, addend: 0x0, symName: __ZN5Eigen9ArrayBaseINS_13CwiseBinaryOpINS_8internal17scalar_product_opIddEEKNS_14CwiseNullaryOpINS2_18scalar_constant_opIdEEKNS_5ArrayIdLin1ELi1ELi0ELin1ELi1EEEEEKNS1_INS2_13scalar_sum_opIddEEKNS1_IS4_SC_KNS_12ArrayWrapperINS_6MatrixIdLin1ELi1ELi0ELin1ELi1EEEEEEESL_EEEEEC2Ev, symObjAddr: 0x3B9C, symBinAddr: 0x1000042DC, symSize: 0x20 }
  - { offset: 0x65AAB, size: 0x8, addend: 0x0, symName: __ZNK5Eigen13CwiseBinaryOpINS_8internal13scalar_sum_opIddEEKNS0_INS1_17scalar_product_opIddEEKNS_14CwiseNullaryOpINS1_18scalar_constant_opIdEEKNS_5ArrayIdLin1ELi1ELi0ELin1ELi1EEEEEKNS_12ArrayWrapperINS_6MatrixIdLin1ELi1ELi0ELin1ELi1EEEEEEESK_E4colsEv, symObjAddr: 0x3B7C, symBinAddr: 0x1000042BC, symSize: 0x20 }
  - { offset: 0x65AD5, size: 0x8, addend: 0x0, symName: __ZNK5Eigen13CwiseBinaryOpINS_8internal13scalar_sum_opIddEEKNS0_INS1_17scalar_product_opIddEEKNS_14CwiseNullaryOpINS1_18scalar_constant_opIdEEKNS_5ArrayIdLin1ELi1ELi0ELin1ELi1EEEEEKNS_12ArrayWrapperINS_6MatrixIdLin1ELi1ELi0ELin1ELi1EEEEEEESK_E4rowsEv, symObjAddr: 0x3B5C, symBinAddr: 0x10000429C, symSize: 0x20 }
  - { offset: 0x65AFF, size: 0x8, addend: 0x0, symName: __ZNK5Eigen9EigenBaseINS_13CwiseBinaryOpINS_8internal13scalar_sum_opIddEEKNS1_INS2_17scalar_product_opIddEEKNS_14CwiseNullaryOpINS2_18scalar_constant_opIdEEKNS_5ArrayIdLin1ELi1ELi0ELin1ELi1EEEEEKNS_12ArrayWrapperINS_6MatrixIdLin1ELi1ELi0ELin1ELi1EEEEEEESL_EEE7derivedEv, symObjAddr: 0x3B48, symBinAddr: 0x100004288, symSize: 0x14 }
  - { offset: 0x65B74, size: 0x8, addend: 0x0, symName: __ZN5Eigen13CwiseBinaryOpINS_8internal13scalar_sum_opIddEEKNS0_INS1_17scalar_product_opIddEEKNS_14CwiseNullaryOpINS1_18scalar_constant_opIdEEKNS_5ArrayIdLin1ELi1ELi0ELin1ELi1EEEEEKNS_12ArrayWrapperINS_6MatrixIdLin1ELi1ELi0ELin1ELi1EEEEEEESK_EC1ERSK_SM_RKS3_, symObjAddr: 0x3A54, symBinAddr: 0x100004194, symSize: 0xF4 }
  - { offset: 0x65BEB, size: 0x8, addend: 0x0, symName: __ZN5Eigen13CwiseBinaryOpINS_8internal17scalar_product_opIddEEKNS_14CwiseNullaryOpINS1_18scalar_constant_opIdEEKNS_5ArrayIdLin1ELi1ELi0ELin1ELi1EEEEEKNS_12ArrayWrapperINS_6MatrixIdLin1ELi1ELi0ELin1ELi1EEEEEEC1ERKSH_, symObjAddr: 0x39EC, symBinAddr: 0x10000412C, symSize: 0x68 }
  - { offset: 0x65C42, size: 0x8, addend: 0x0, symName: __ZN5Eigen17CwiseBinaryOpImplINS_8internal13scalar_sum_opIddEEKNS_13CwiseBinaryOpINS1_17scalar_product_opIddEEKNS_14CwiseNullaryOpINS1_18scalar_constant_opIdEEKNS_5ArrayIdLin1ELi1ELi0ELin1ELi1EEEEEKNS_12ArrayWrapperINS_6MatrixIdLin1ELi1ELi0ELin1ELi1EEEEEEESL_NS_5DenseEEC2Ev, symObjAddr: 0x39CC, symBinAddr: 0x10000410C, symSize: 0x20 }
  - { offset: 0x65C82, size: 0x8, addend: 0x0, symName: __ZN5Eigen9ArrayBaseINS_13CwiseBinaryOpINS_8internal13scalar_sum_opIddEEKNS1_INS2_17scalar_product_opIddEEKNS_14CwiseNullaryOpINS2_18scalar_constant_opIdEEKNS_5ArrayIdLin1ELi1ELi0ELin1ELi1EEEEEKNS_12ArrayWrapperINS_6MatrixIdLin1ELi1ELi0ELin1ELi1EEEEEEESL_EEEC2Ev, symObjAddr: 0x39AC, symBinAddr: 0x1000040EC, symSize: 0x20 }
  - { offset: 0x65CC2, size: 0x8, addend: 0x0, symName: __ZN5Eigen8internal13scalar_sum_opIddEC1Ev, symObjAddr: 0x3998, symBinAddr: 0x1000040D8, symSize: 0x14 }
  - { offset: 0x65CE8, size: 0x8, addend: 0x0, symName: __ZNK5Eigen9EigenBaseINS_13CwiseBinaryOpINS_8internal17scalar_product_opIddEEKNS_14CwiseNullaryOpINS2_18scalar_constant_opIdEEKNS_5ArrayIdLin1ELi1ELi0ELin1ELi1EEEEEKNS_12ArrayWrapperINS_6MatrixIdLin1ELi1ELi0ELin1ELi1EEEEEEEE7derivedEv, symObjAddr: 0x3984, symBinAddr: 0x1000040C4, symSize: 0x14 }
  - { offset: 0x65D5D, size: 0x8, addend: 0x0, symName: __ZN5Eigen13CwiseBinaryOpINS_8internal17scalar_product_opIddEEKNS_14CwiseNullaryOpINS1_18scalar_constant_opIdEEKNS_5ArrayIdLin1ELi1ELi0ELin1ELi1EEEEEKNS_12ArrayWrapperINS_6MatrixIdLin1ELi1ELi0ELin1ELi1EEEEEEC1ERSB_RSG_RKS3_, symObjAddr: 0x388C, symBinAddr: 0x100003FCC, symSize: 0xF8 }
  - { offset: 0x65DDA, size: 0x8, addend: 0x0, symName: __ZN5Eigen17CwiseBinaryOpImplINS_8internal17scalar_product_opIddEEKNS_14CwiseNullaryOpINS1_18scalar_constant_opIdEEKNS_5ArrayIdLin1ELi1ELi0ELin1ELi1EEEEEKNS_12ArrayWrapperINS_6MatrixIdLin1ELi1ELi0ELin1ELi1EEEEENS_5DenseEEC2Ev, symObjAddr: 0x386C, symBinAddr: 0x100003FAC, symSize: 0x20 }
  - { offset: 0x65E1A, size: 0x8, addend: 0x0, symName: __ZN5Eigen9ArrayBaseINS_13CwiseBinaryOpINS_8internal17scalar_product_opIddEEKNS_14CwiseNullaryOpINS2_18scalar_constant_opIdEEKNS_5ArrayIdLin1ELi1ELi0ELin1ELi1EEEEEKNS_12ArrayWrapperINS_6MatrixIdLin1ELi1ELi0ELin1ELi1EEEEEEEEC2Ev, symObjAddr: 0x384C, symBinAddr: 0x100003F8C, symSize: 0x20 }
  - { offset: 0x65E40, size: 0x8, addend: 0x0, symName: __ZN5Eigen15DenseCoeffsBaseINS_6MatrixIdLin1ELi1ELi0ELin1ELi1EEELi1EE8coeffRefEl, symObjAddr: 0x37F8, symBinAddr: 0x100003F38, symSize: 0x54 }
  - { offset: 0x65E99, size: 0x8, addend: 0x0, symName: __ZN5Eigen8internal9evaluatorINS_6MatrixIdLin1ELi1ELi0ELin1ELi1EEEED1Ev, symObjAddr: 0x37D8, symBinAddr: 0x100003F18, symSize: 0x20 }
  - { offset: 0x65EC3, size: 0x8, addend: 0x0, symName: __ZN5Eigen8internal9evaluatorINS_6MatrixIdLin1ELi1ELi0ELin1ELi1EEEED2Ev, symObjAddr: 0x37B8, symBinAddr: 0x100003EF8, symSize: 0x20 }
  - { offset: 0x65F06, size: 0x8, addend: 0x0, symName: __ZN5Eigen8internal9evaluatorINS_15PlainObjectBaseINS_6MatrixIdLin1ELi1ELi0ELin1ELi1EEEEEED2Ev, symObjAddr: 0x3798, symBinAddr: 0x100003ED8, symSize: 0x20 }
  - { offset: 0x65F2C, size: 0x8, addend: 0x0, symName: __ZNK5Eigen9EigenBaseINS_6MatrixIdLin1ELi1ELi0ELin1ELi1EEEE4sizeEv, symObjAddr: 0x3764, symBinAddr: 0x100003EA4, symSize: 0x34 }
  - { offset: 0x65F52, size: 0x8, addend: 0x0, symName: __ZN5Eigen8internal15call_assignmentINS_5BlockINS_6MatrixIdLin1ELin1ELi0ELin1ELin1EEELin1ELi1ELb1EEENS3_IdLin1ELi1ELi0ELin1ELi1EEEEEvRT_RKT0_, symObjAddr: 0x3728, symBinAddr: 0x100003E68, symSize: 0x3C }
  - { offset: 0x65FA3, size: 0x8, addend: 0x0, symName: __ZN5Eigen9EigenBaseINS_5BlockINS_6MatrixIdLin1ELin1ELi0ELin1ELin1EEELin1ELi1ELb1EEEE7derivedEv, symObjAddr: 0x3714, symBinAddr: 0x100003E54, symSize: 0x14 }
  - { offset: 0x6600B, size: 0x8, addend: 0x0, symName: __ZN5Eigen5BlockINS_6MatrixIdLin1ELin1ELi0ELin1ELin1EEELin1ELi1ELb1EEC1ERS2_l, symObjAddr: 0x366C, symBinAddr: 0x100003DAC, symSize: 0xA8 }
  - { offset: 0x66057, size: 0x8, addend: 0x0, symName: __ZN5Eigen9EigenBaseINS_6MatrixIdLin1ELin1ELi0ELin1ELin1EEEE7derivedEv, symObjAddr: 0x3658, symBinAddr: 0x100003D98, symSize: 0x14 }
  - { offset: 0x66081, size: 0x8, addend: 0x0, symName: __ZNK5Eigen9DenseBaseINS_13CwiseBinaryOpINS_8internal20scalar_difference_opIddEEKNS_6MatrixIdLin1ELi1ELi0ELin1ELi1EEES7_EEE6hasNaNEv, symObjAddr: 0x35E8, symBinAddr: 0x100003D28, symSize: 0x70 }
  - { offset: 0x660AC, size: 0x8, addend: 0x0, symName: __ZNK5Eigen10MatrixBaseINS_6MatrixIdLin1ELi1ELi0ELin1ELi1EEEEmiIS2_EEKNS_13CwiseBinaryOpINS_8internal20scalar_difference_opIdNS6_6traitsIT_E6ScalarEEEKS2_KS9_EERKNS0_IS9_EE, symObjAddr: 0x3580, symBinAddr: 0x100003CC0, symSize: 0x68 }
  - { offset: 0x660EF, size: 0x8, addend: 0x0, symName: __ZNK5Eigen9DenseBaseINS_12CwiseUnaryOpINS_8internal13scalar_abs_opIdEEKNS_6MatrixIdLin1ELi1ELi0ELin1ELi1EEEEEE8maxCoeffILi0EEEdv, symObjAddr: 0x3538, symBinAddr: 0x100003C78, symSize: 0x48 }
  - { offset: 0x66157, size: 0x8, addend: 0x0, symName: __ZN5Eigen12CwiseUnaryOpINS_8internal13scalar_abs_opIdEEKNS_6MatrixIdLin1ELi1ELi0ELin1ELi1EEEEC1ERS6_RKS3_, symObjAddr: 0x34F4, symBinAddr: 0x100003C34, symSize: 0x44 }
  - { offset: 0x661B7, size: 0x8, addend: 0x0, symName: __ZN5Eigen16CwiseUnaryOpImplINS_8internal13scalar_abs_opIdEEKNS_6MatrixIdLin1ELi1ELi0ELin1ELi1EEENS_5DenseEEC2Ev, symObjAddr: 0x34D4, symBinAddr: 0x100003C14, symSize: 0x20 }
  - { offset: 0x661F7, size: 0x8, addend: 0x0, symName: __ZN5Eigen10MatrixBaseINS_12CwiseUnaryOpINS_8internal13scalar_abs_opIdEEKNS_6MatrixIdLin1ELi1ELi0ELin1ELi1EEEEEEC2Ev, symObjAddr: 0x34B4, symBinAddr: 0x100003BF4, symSize: 0x20 }
  - { offset: 0x66237, size: 0x8, addend: 0x0, symName: __ZN5Eigen8internal13scalar_abs_opIdEC1Ev, symObjAddr: 0x34A0, symBinAddr: 0x100003BE0, symSize: 0x14 }
  - { offset: 0x6625D, size: 0x8, addend: 0x0, symName: __ZNK5Eigen9EigenBaseINS_6MatrixIdLin1ELi1ELi0ELin1ELi1EEEE7derivedEv, symObjAddr: 0x348C, symBinAddr: 0x100003BCC, symSize: 0x14 }
  - { offset: 0x66287, size: 0x8, addend: 0x0, symName: __ZN5Eigen15PlainObjectBaseINS_6MatrixIdLin1ELi1ELi0ELin1ELi1EEEE4_setIS2_EERS2_RKNS_9DenseBaseIT_EE, symObjAddr: 0x3444, symBinAddr: 0x100003B84, symSize: 0x48 }
  - { offset: 0x662CB, size: 0x8, addend: 0x0, symName: __ZN5Eigen15PlainObjectBaseINS_6MatrixIdLin1ELi1ELi0ELin1ELi1EEEE4_setINS_13CwiseBinaryOpINS_8internal17scalar_product_opIddEEKNS_12CwiseUnaryOpINS6_13scalar_sin_opIdEEKNS_12ArrayWrapperIS2_EEEEKNS9_INS6_13scalar_exp_opIdEEKNS5_IS8_KNS9_INS6_18scalar_opposite_opIdEEKNS5_INS6_20scalar_difference_opIddEESE_KNS_14CwiseNullaryOpINS6_18scalar_constant_opIdEEKNS_5ArrayIdLin1ELi1ELi0ELin1ELi1EEEEEEEEESW_EEEEEEEERS2_RKNS_9DenseBaseIT_EE, symObjAddr: 0x33FC, symBinAddr: 0x100003B3C, symSize: 0x48 }
  - { offset: 0x6635A, size: 0x8, addend: 0x0, symName: __ZN5Eigen13CwiseBinaryOpINS_8internal17scalar_product_opIddEEKNS_12CwiseUnaryOpINS1_13scalar_sin_opIdEEKNS_12ArrayWrapperINS_6MatrixIdLin1ELi1ELi0ELin1ELi1EEEEEEEKNS4_INS1_13scalar_exp_opIdEEKNS0_IS3_KNS4_INS1_18scalar_opposite_opIdEEKNS0_INS1_20scalar_difference_opIddEESB_KNS_14CwiseNullaryOpINS1_18scalar_constant_opIdEEKNS_5ArrayIdLin1ELi1ELi0ELin1ELi1EEEEEEEEEST_EEEEEC1ERSD_RSZ_RKS3_, symObjAddr: 0x3308, symBinAddr: 0x100003A48, symSize: 0xF4 }
  - { offset: 0x663D1, size: 0x8, addend: 0x0, symName: __ZN5Eigen12CwiseUnaryOpINS_8internal13scalar_exp_opIdEEKNS_13CwiseBinaryOpINS1_17scalar_product_opIddEEKNS0_INS1_18scalar_opposite_opIdEEKNS4_INS1_20scalar_difference_opIddEEKNS_12ArrayWrapperINS_6MatrixIdLin1ELi1ELi0ELin1ELi1EEEEEKNS_14CwiseNullaryOpINS1_18scalar_constant_opIdEEKNS_5ArrayIdLin1ELi1ELi0ELin1ELi1EEEEEEEEESP_EEEC1ERKSU_, symObjAddr: 0x32B4, symBinAddr: 0x1000039F4, symSize: 0x54 }
  - { offset: 0x66422, size: 0x8, addend: 0x0, symName: __ZN5Eigen12CwiseUnaryOpINS_8internal13scalar_sin_opIdEEKNS_12ArrayWrapperINS_6MatrixIdLin1ELi1ELi0ELin1ELi1EEEEEEC1ERKS9_, symObjAddr: 0x326C, symBinAddr: 0x1000039AC, symSize: 0x48 }
  - { offset: 0x66479, size: 0x8, addend: 0x0, symName: __ZN5Eigen17CwiseBinaryOpImplINS_8internal17scalar_product_opIddEEKNS_12CwiseUnaryOpINS1_13scalar_sin_opIdEEKNS_12ArrayWrapperINS_6MatrixIdLin1ELi1ELi0ELin1ELi1EEEEEEEKNS4_INS1_13scalar_exp_opIdEEKNS_13CwiseBinaryOpIS3_KNS4_INS1_18scalar_opposite_opIdEEKNSG_INS1_20scalar_difference_opIddEESB_KNS_14CwiseNullaryOpINS1_18scalar_constant_opIdEEKNS_5ArrayIdLin1ELi1ELi0ELin1ELi1EEEEEEEEESU_EEEENS_5DenseEEC2Ev, symObjAddr: 0x324C, symBinAddr: 0x10000398C, symSize: 0x20 }
  - { offset: 0x664B9, size: 0x8, addend: 0x0, symName: __ZN5Eigen9ArrayBaseINS_13CwiseBinaryOpINS_8internal17scalar_product_opIddEEKNS_12CwiseUnaryOpINS2_13scalar_sin_opIdEEKNS_12ArrayWrapperINS_6MatrixIdLin1ELi1ELi0ELin1ELi1EEEEEEEKNS5_INS2_13scalar_exp_opIdEEKNS1_IS4_KNS5_INS2_18scalar_opposite_opIdEEKNS1_INS2_20scalar_difference_opIddEESC_KNS_14CwiseNullaryOpINS2_18scalar_constant_opIdEEKNS_5ArrayIdLin1ELi1ELi0ELin1ELi1EEEEEEEEESU_EEEEEEEC2Ev, symObjAddr: 0x322C, symBinAddr: 0x10000396C, symSize: 0x20 }
  - { offset: 0x664DF, size: 0x8, addend: 0x0, symName: __ZNK5Eigen9EigenBaseINS_12CwiseUnaryOpINS_8internal13scalar_exp_opIdEEKNS_13CwiseBinaryOpINS2_17scalar_product_opIddEEKNS1_INS2_18scalar_opposite_opIdEEKNS5_INS2_20scalar_difference_opIddEEKNS_12ArrayWrapperINS_6MatrixIdLin1ELi1ELi0ELin1ELi1EEEEEKNS_14CwiseNullaryOpINS2_18scalar_constant_opIdEEKNS_5ArrayIdLin1ELi1ELi0ELin1ELi1EEEEEEEEESQ_EEEEE7derivedEv, symObjAddr: 0x3218, symBinAddr: 0x100003958, symSize: 0x14 }
  - { offset: 0x66509, size: 0x8, addend: 0x0, symName: __ZNK5Eigen9EigenBaseINS_12CwiseUnaryOpINS_8internal13scalar_sin_opIdEEKNS_12ArrayWrapperINS_6MatrixIdLin1ELi1ELi0ELin1ELi1EEEEEEEE7derivedEv, symObjAddr: 0x3204, symBinAddr: 0x100003944, symSize: 0x14 }
  - { offset: 0x66567, size: 0x8, addend: 0x0, symName: __ZN5Eigen12CwiseUnaryOpINS_8internal13scalar_exp_opIdEEKNS_13CwiseBinaryOpINS1_17scalar_product_opIddEEKNS0_INS1_18scalar_opposite_opIdEEKNS4_INS1_20scalar_difference_opIddEEKNS_12ArrayWrapperINS_6MatrixIdLin1ELi1ELi0ELin1ELi1EEEEEKNS_14CwiseNullaryOpINS1_18scalar_constant_opIdEEKNS_5ArrayIdLin1ELi1ELi0ELin1ELi1EEEEEEEEESP_EEEC1ERST_RKS3_, symObjAddr: 0x31BC, symBinAddr: 0x1000038FC, symSize: 0x48 }
  - { offset: 0x665C1, size: 0x8, addend: 0x0, symName: __ZN5Eigen13CwiseBinaryOpINS_8internal17scalar_product_opIddEEKNS_12CwiseUnaryOpINS1_18scalar_opposite_opIdEEKNS0_INS1_20scalar_difference_opIddEEKNS_12ArrayWrapperINS_6MatrixIdLin1ELi1ELi0ELin1ELi1EEEEEKNS_14CwiseNullaryOpINS1_18scalar_constant_opIdEEKNS_5ArrayIdLin1ELi1ELi0ELin1ELi1EEEEEEEEESN_EC1ERKSQ_, symObjAddr: 0x314C, symBinAddr: 0x10000388C, symSize: 0x70 }
  - { offset: 0x66618, size: 0x8, addend: 0x0, symName: __ZN5Eigen16CwiseUnaryOpImplINS_8internal13scalar_exp_opIdEEKNS_13CwiseBinaryOpINS1_17scalar_product_opIddEEKNS_12CwiseUnaryOpINS1_18scalar_opposite_opIdEEKNS4_INS1_20scalar_difference_opIddEEKNS_12ArrayWrapperINS_6MatrixIdLin1ELi1ELi0ELin1ELi1EEEEEKNS_14CwiseNullaryOpINS1_18scalar_constant_opIdEEKNS_5ArrayIdLin1ELi1ELi0ELin1ELi1EEEEEEEEESQ_EENS_5DenseEEC2Ev, symObjAddr: 0x312C, symBinAddr: 0x10000386C, symSize: 0x20 }
  - { offset: 0x66658, size: 0x8, addend: 0x0, symName: __ZN5Eigen9ArrayBaseINS_12CwiseUnaryOpINS_8internal13scalar_exp_opIdEEKNS_13CwiseBinaryOpINS2_17scalar_product_opIddEEKNS1_INS2_18scalar_opposite_opIdEEKNS5_INS2_20scalar_difference_opIddEEKNS_12ArrayWrapperINS_6MatrixIdLin1ELi1ELi0ELin1ELi1EEEEEKNS_14CwiseNullaryOpINS2_18scalar_constant_opIdEEKNS_5ArrayIdLin1ELi1ELi0ELin1ELi1EEEEEEEEESQ_EEEEEC2Ev, symObjAddr: 0x310C, symBinAddr: 0x10000384C, symSize: 0x20 }
  - { offset: 0x66698, size: 0x8, addend: 0x0, symName: __ZN5Eigen8internal13scalar_exp_opIdEC1Ev, symObjAddr: 0x30F8, symBinAddr: 0x100003838, symSize: 0x14 }
  - { offset: 0x666BE, size: 0x8, addend: 0x0, symName: __ZNK5Eigen9EigenBaseINS_13CwiseBinaryOpINS_8internal17scalar_product_opIddEEKNS_12CwiseUnaryOpINS2_18scalar_opposite_opIdEEKNS1_INS2_20scalar_difference_opIddEEKNS_12ArrayWrapperINS_6MatrixIdLin1ELi1ELi0ELin1ELi1EEEEEKNS_14CwiseNullaryOpINS2_18scalar_constant_opIdEEKNS_5ArrayIdLin1ELi1ELi0ELin1ELi1EEEEEEEEESO_EEE7derivedEv, symObjAddr: 0x30E4, symBinAddr: 0x100003824, symSize: 0x14 }
  - { offset: 0x66733, size: 0x8, addend: 0x0, symName: __ZN5Eigen13CwiseBinaryOpINS_8internal17scalar_product_opIddEEKNS_12CwiseUnaryOpINS1_18scalar_opposite_opIdEEKNS0_INS1_20scalar_difference_opIddEEKNS_12ArrayWrapperINS_6MatrixIdLin1ELi1ELi0ELin1ELi1EEEEEKNS_14CwiseNullaryOpINS1_18scalar_constant_opIdEEKNS_5ArrayIdLin1ELi1ELi0ELin1ELi1EEEEEEEEESN_EC1ERSP_RSN_RKS3_, symObjAddr: 0x2FF0, symBinAddr: 0x100003730, symSize: 0xF4 }
  - { offset: 0x667AA, size: 0x8, addend: 0x0, symName: __ZN5Eigen12CwiseUnaryOpINS_8internal18scalar_opposite_opIdEEKNS_13CwiseBinaryOpINS1_20scalar_difference_opIddEEKNS_12ArrayWrapperINS_6MatrixIdLin1ELi1ELi0ELin1ELi1EEEEEKNS_14CwiseNullaryOpINS1_18scalar_constant_opIdEEKNS_5ArrayIdLin1ELi1ELi0ELin1ELi1EEEEEEEEC1ERKSM_, symObjAddr: 0x2F9C, symBinAddr: 0x1000036DC, symSize: 0x54 }
  - { offset: 0x66801, size: 0x8, addend: 0x0, symName: __ZN5Eigen17CwiseBinaryOpImplINS_8internal17scalar_product_opIddEEKNS_12CwiseUnaryOpINS1_18scalar_opposite_opIdEEKNS_13CwiseBinaryOpINS1_20scalar_difference_opIddEEKNS_12ArrayWrapperINS_6MatrixIdLin1ELi1ELi0ELin1ELi1EEEEEKNS_14CwiseNullaryOpINS1_18scalar_constant_opIdEEKNS_5ArrayIdLin1ELi1ELi0ELin1ELi1EEEEEEEEESO_NS_5DenseEEC2Ev, symObjAddr: 0x2F7C, symBinAddr: 0x1000036BC, symSize: 0x20 }
  - { offset: 0x66841, size: 0x8, addend: 0x0, symName: __ZN5Eigen9ArrayBaseINS_13CwiseBinaryOpINS_8internal17scalar_product_opIddEEKNS_12CwiseUnaryOpINS2_18scalar_opposite_opIdEEKNS1_INS2_20scalar_difference_opIddEEKNS_12ArrayWrapperINS_6MatrixIdLin1ELi1ELi0ELin1ELi1EEEEEKNS_14CwiseNullaryOpINS2_18scalar_constant_opIdEEKNS_5ArrayIdLin1ELi1ELi0ELin1ELi1EEEEEEEEESO_EEEC2Ev, symObjAddr: 0x2F5C, symBinAddr: 0x10000369C, symSize: 0x20 }
  - { offset: 0x66881, size: 0x8, addend: 0x0, symName: __ZN5Eigen8internal17scalar_product_opIddEC1Ev, symObjAddr: 0x2F48, symBinAddr: 0x100003688, symSize: 0x14 }
  - { offset: 0x668A7, size: 0x8, addend: 0x0, symName: __ZNK5Eigen9EigenBaseINS_12CwiseUnaryOpINS_8internal18scalar_opposite_opIdEEKNS_13CwiseBinaryOpINS2_20scalar_difference_opIddEEKNS_12ArrayWrapperINS_6MatrixIdLin1ELi1ELi0ELin1ELi1EEEEEKNS_14CwiseNullaryOpINS2_18scalar_constant_opIdEEKNS_5ArrayIdLin1ELi1ELi0ELin1ELi1EEEEEEEEEE7derivedEv, symObjAddr: 0x2F34, symBinAddr: 0x100003674, symSize: 0x14 }
  - { offset: 0x66905, size: 0x8, addend: 0x0, symName: __ZN5Eigen12CwiseUnaryOpINS_8internal18scalar_opposite_opIdEEKNS_13CwiseBinaryOpINS1_20scalar_difference_opIddEEKNS_12ArrayWrapperINS_6MatrixIdLin1ELi1ELi0ELin1ELi1EEEEEKNS_14CwiseNullaryOpINS1_18scalar_constant_opIdEEKNS_5ArrayIdLin1ELi1ELi0ELin1ELi1EEEEEEEEC1ERSL_RKS3_, symObjAddr: 0x2EEC, symBinAddr: 0x10000362C, symSize: 0x48 }
  - { offset: 0x6695F, size: 0x8, addend: 0x0, symName: __ZN5Eigen13CwiseBinaryOpINS_8internal20scalar_difference_opIddEEKNS_12ArrayWrapperINS_6MatrixIdLin1ELi1ELi0ELin1ELi1EEEEEKNS_14CwiseNullaryOpINS1_18scalar_constant_opIdEEKNS_5ArrayIdLin1ELi1ELi0ELin1ELi1EEEEEEC1ERKSH_, symObjAddr: 0x2E88, symBinAddr: 0x1000035C8, symSize: 0x64 }
  - { offset: 0x669B6, size: 0x8, addend: 0x0, symName: __ZN5Eigen16CwiseUnaryOpImplINS_8internal18scalar_opposite_opIdEEKNS_13CwiseBinaryOpINS1_20scalar_difference_opIddEEKNS_12ArrayWrapperINS_6MatrixIdLin1ELi1ELi0ELin1ELi1EEEEEKNS_14CwiseNullaryOpINS1_18scalar_constant_opIdEEKNS_5ArrayIdLin1ELi1ELi0ELin1ELi1EEEEEEENS_5DenseEEC2Ev, symObjAddr: 0x2E68, symBinAddr: 0x1000035A8, symSize: 0x20 }
  - { offset: 0x669F6, size: 0x8, addend: 0x0, symName: __ZN5Eigen9ArrayBaseINS_12CwiseUnaryOpINS_8internal18scalar_opposite_opIdEEKNS_13CwiseBinaryOpINS2_20scalar_difference_opIddEEKNS_12ArrayWrapperINS_6MatrixIdLin1ELi1ELi0ELin1ELi1EEEEEKNS_14CwiseNullaryOpINS2_18scalar_constant_opIdEEKNS_5ArrayIdLin1ELi1ELi0ELin1ELi1EEEEEEEEEEC2Ev, symObjAddr: 0x2E48, symBinAddr: 0x100003588, symSize: 0x20 }
  - { offset: 0x66A36, size: 0x8, addend: 0x0, symName: __ZN5Eigen8internal18scalar_opposite_opIdEC1Ev, symObjAddr: 0x2E34, symBinAddr: 0x100003574, symSize: 0x14 }
  - { offset: 0x66A5C, size: 0x8, addend: 0x0, symName: __ZNK5Eigen9EigenBaseINS_13CwiseBinaryOpINS_8internal20scalar_difference_opIddEEKNS_12ArrayWrapperINS_6MatrixIdLin1ELi1ELi0ELin1ELi1EEEEEKNS_14CwiseNullaryOpINS2_18scalar_constant_opIdEEKNS_5ArrayIdLin1ELi1ELi0ELin1ELi1EEEEEEEE7derivedEv, symObjAddr: 0x2E20, symBinAddr: 0x100003560, symSize: 0x14 }
  - { offset: 0x66AD1, size: 0x8, addend: 0x0, symName: __ZN5Eigen13CwiseBinaryOpINS_8internal20scalar_difference_opIddEEKNS_12ArrayWrapperINS_6MatrixIdLin1ELi1ELi0ELin1ELi1EEEEEKNS_14CwiseNullaryOpINS1_18scalar_constant_opIdEEKNS_5ArrayIdLin1ELi1ELi0ELin1ELi1EEEEEEC1ERS8_RSG_RKS3_, symObjAddr: 0x2D2C, symBinAddr: 0x10000346C, symSize: 0xF4 }
  - { offset: 0x66B48, size: 0x8, addend: 0x0, symName: __ZN5Eigen14CwiseNullaryOpINS_8internal18scalar_constant_opIdEEKNS_5ArrayIdLin1ELi1ELi0ELin1ELi1EEEEC1ERKS7_, symObjAddr: 0x2CE4, symBinAddr: 0x100003424, symSize: 0x48 }
  - { offset: 0x66B9F, size: 0x8, addend: 0x0, symName: __ZN5Eigen17CwiseBinaryOpImplINS_8internal20scalar_difference_opIddEEKNS_12ArrayWrapperINS_6MatrixIdLin1ELi1ELi0ELin1ELi1EEEEEKNS_14CwiseNullaryOpINS1_18scalar_constant_opIdEEKNS_5ArrayIdLin1ELi1ELi0ELin1ELi1EEEEENS_5DenseEEC2Ev, symObjAddr: 0x2CC4, symBinAddr: 0x100003404, symSize: 0x20 }
  - { offset: 0x66BDF, size: 0x8, addend: 0x0, symName: __ZN5Eigen9ArrayBaseINS_13CwiseBinaryOpINS_8internal20scalar_difference_opIddEEKNS_12ArrayWrapperINS_6MatrixIdLin1ELi1ELi0ELin1ELi1EEEEEKNS_14CwiseNullaryOpINS2_18scalar_constant_opIdEEKNS_5ArrayIdLin1ELi1ELi0ELin1ELi1EEEEEEEEC2Ev, symObjAddr: 0x2CA4, symBinAddr: 0x1000033E4, symSize: 0x20 }
  - { offset: 0x66C1F, size: 0x8, addend: 0x0, symName: __ZN5Eigen8internal20scalar_difference_opIddEC1Ev, symObjAddr: 0x2C90, symBinAddr: 0x1000033D0, symSize: 0x14 }
  - { offset: 0x66C90, size: 0x8, addend: 0x0, symName: __ZN5Eigen14CwiseNullaryOpINS_8internal18scalar_constant_opIdEEKNS_5ArrayIdLin1ELi1ELi0ELin1ELi1EEEEC1EllRKS3_, symObjAddr: 0x2B9C, symBinAddr: 0x1000032DC, symSize: 0xF4 }
  - { offset: 0x66CFF, size: 0x8, addend: 0x0, symName: __ZN5Eigen9ArrayBaseINS_14CwiseNullaryOpINS_8internal18scalar_constant_opIdEEKNS_5ArrayIdLin1ELi1ELi0ELin1ELi1EEEEEEC2Ev, symObjAddr: 0x2B7C, symBinAddr: 0x1000032BC, symSize: 0x20 }
  - { offset: 0x66D4C, size: 0x8, addend: 0x0, symName: __ZN5Eigen8internal18scalar_constant_opIdEC1ERKd, symObjAddr: 0x2B54, symBinAddr: 0x100003294, symSize: 0x28 }
  - { offset: 0x66D7B, size: 0x8, addend: 0x0, symName: __ZNK5Eigen12ArrayWrapperINS_6MatrixIdLin1ELi1ELi0ELin1ELi1EEEE4colsEv, symObjAddr: 0x2B34, symBinAddr: 0x100003274, symSize: 0x20 }
  - { offset: 0x66DA5, size: 0x8, addend: 0x0, symName: __ZNK5Eigen12ArrayWrapperINS_6MatrixIdLin1ELi1ELi0ELin1ELi1EEEE4rowsEv, symObjAddr: 0x2B14, symBinAddr: 0x100003254, symSize: 0x20 }
  - { offset: 0x66E03, size: 0x8, addend: 0x0, symName: __ZN5Eigen12CwiseUnaryOpINS_8internal13scalar_sin_opIdEEKNS_12ArrayWrapperINS_6MatrixIdLin1ELi1ELi0ELin1ELi1EEEEEEC1ERS8_RKS3_, symObjAddr: 0x2ACC, symBinAddr: 0x10000320C, symSize: 0x48 }
  - { offset: 0x66E63, size: 0x8, addend: 0x0, symName: __ZN5Eigen16CwiseUnaryOpImplINS_8internal13scalar_sin_opIdEEKNS_12ArrayWrapperINS_6MatrixIdLin1ELi1ELi0ELin1ELi1EEEEENS_5DenseEEC2Ev, symObjAddr: 0x2AAC, symBinAddr: 0x1000031EC, symSize: 0x20 }
  - { offset: 0x66EA3, size: 0x8, addend: 0x0, symName: __ZN5Eigen9ArrayBaseINS_12CwiseUnaryOpINS_8internal13scalar_sin_opIdEEKNS_12ArrayWrapperINS_6MatrixIdLin1ELi1ELi0ELin1ELi1EEEEEEEEC2Ev, symObjAddr: 0x2A8C, symBinAddr: 0x1000031CC, symSize: 0x20 }
  - { offset: 0x66EE3, size: 0x8, addend: 0x0, symName: __ZN5Eigen8internal13scalar_sin_opIdEC1Ev, symObjAddr: 0x2A78, symBinAddr: 0x1000031B8, symSize: 0x14 }
  - { offset: 0x66F09, size: 0x8, addend: 0x0, symName: __ZNK5Eigen9EigenBaseINS_12ArrayWrapperINS_6MatrixIdLin1ELi1ELi0ELin1ELi1EEEEEE7derivedEv, symObjAddr: 0x2A64, symBinAddr: 0x1000031A4, symSize: 0x14 }
  - { offset: 0x66F5A, size: 0x8, addend: 0x0, symName: __ZN5Eigen12ArrayWrapperINS_6MatrixIdLin1ELi1ELi0ELin1ELi1EEEEC1ERS2_, symObjAddr: 0x2A34, symBinAddr: 0x100003174, symSize: 0x30 }
  - { offset: 0x66FA3, size: 0x8, addend: 0x0, symName: __ZN5Eigen9ArrayBaseINS_12ArrayWrapperINS_6MatrixIdLin1ELi1ELi0ELin1ELi1EEEEEEC2Ev, symObjAddr: 0x2A14, symBinAddr: 0x100003154, symSize: 0x20 }
  - { offset: 0x66FC9, size: 0x8, addend: 0x0, symName: __ZN5Eigen9EigenBaseINS_6MatrixIdLin1ELi1ELi0ELin1ELi1EEEE7derivedEv, symObjAddr: 0x2A00, symBinAddr: 0x100003140, symSize: 0x14 }
  - { offset: 0x67024, size: 0x8, addend: 0x0, symName: __ZN5Eigen15PlainObjectBaseINS_6MatrixIdLin1ELin1ELi0ELin1ELin1EEEEC2INS_14CwiseNullaryOpINS_8internal18scalar_constant_opIdEES2_EEEERKNS_9DenseBaseIT_EE, symObjAddr: 0x299C, symBinAddr: 0x1000030DC, symSize: 0x64 }
  - { offset: 0x67076, size: 0x8, addend: 0x0, symName: __ZN5Eigen10MatrixBaseINS_6MatrixIdLin1ELin1ELi0ELin1ELin1EEEEC2Ev, symObjAddr: 0x297C, symBinAddr: 0x1000030BC, symSize: 0x20 }
  - { offset: 0x6709C, size: 0x8, addend: 0x0, symName: __ZNK5Eigen9EigenBaseINS_14CwiseNullaryOpINS_8internal18scalar_constant_opIdEENS_6MatrixIdLin1ELin1ELi0ELin1ELin1EEEEEE7derivedEv, symObjAddr: 0x2968, symBinAddr: 0x1000030A8, symSize: 0x14 }
  - { offset: 0x670C2, size: 0x8, addend: 0x0, symName: __ZN5Eigen9DenseBaseINS_6MatrixIdLin1ELin1ELi0ELin1ELin1EEEE8ConstantEllRKd, symObjAddr: 0x2918, symBinAddr: 0x100003058, symSize: 0x50 }
  - { offset: 0x67140, size: 0x8, addend: 0x0, symName: __ZN5Eigen15PlainObjectBaseINS_6MatrixIdLin1ELi1ELi0ELin1ELi1EEEEC2INS_14CwiseNullaryOpINS_8internal18scalar_constant_opIdEES2_EEEERKNS_9DenseBaseIT_EE, symObjAddr: 0x28B4, symBinAddr: 0x100002FF4, symSize: 0x64 }
  - { offset: 0x67178, size: 0x8, addend: 0x0, symName: __ZNK5Eigen9EigenBaseINS_14CwiseNullaryOpINS_8internal18scalar_constant_opIdEENS_6MatrixIdLin1ELi1ELi0ELin1ELi1EEEEEE7derivedEv, symObjAddr: 0x28A0, symBinAddr: 0x100002FE0, symSize: 0x14 }
  - { offset: 0x6719E, size: 0x8, addend: 0x0, symName: __ZN5Eigen9DenseBaseINS_6MatrixIdLin1ELi1ELi0ELin1ELi1EEEE8ConstantElRKd, symObjAddr: 0x2858, symBinAddr: 0x100002F98, symSize: 0x48 }
  - { offset: 0x671D7, size: 0x8, addend: 0x0, symName: __ZN5Eigen8internal31conditional_aligned_delete_autoIdLb1EEEvPT_m, symObjAddr: 0x2834, symBinAddr: 0x100002F74, symSize: 0x24 }
  - { offset: 0x6725A, size: 0x8, addend: 0x0, symName: __ZN5Eigen15PlainObjectBaseINS_6MatrixIdLin1ELi1ELi0ELin1ELi1EEEEC2INS_14CwiseNullaryOpINS_8internal12linspaced_opIdEES2_EEEERKNS_9DenseBaseIT_EE, symObjAddr: 0x27D0, symBinAddr: 0x100002F10, symSize: 0x64 }
  - { offset: 0x672AC, size: 0x8, addend: 0x0, symName: __ZN5Eigen10MatrixBaseINS_6MatrixIdLin1ELi1ELi0ELin1ELi1EEEEC2Ev, symObjAddr: 0x27B0, symBinAddr: 0x100002EF0, symSize: 0x20 }
  - { offset: 0x672D2, size: 0x8, addend: 0x0, symName: __ZNK5Eigen9EigenBaseINS_14CwiseNullaryOpINS_8internal12linspaced_opIdEENS_6MatrixIdLin1ELi1ELi0ELin1ELi1EEEEEE7derivedEv, symObjAddr: 0x279C, symBinAddr: 0x100002EDC, symSize: 0x14 }
  - { offset: 0x672F8, size: 0x8, addend: 0x0, symName: __ZN5Eigen9DenseBaseINS_6MatrixIdLin1ELi1ELi0ELin1ELi1EEEE11NullaryExprINS_8internal12linspaced_opIdEEEEKNS_14CwiseNullaryOpIT_S2_EElRKS9_, symObjAddr: 0x276C, symBinAddr: 0x100002EAC, symSize: 0x30 }
  - { offset: 0x6737F, size: 0x8, addend: 0x0, symName: __ZN5Eigen8internal12linspaced_opIdEC1ERKdS4_l, symObjAddr: 0x2718, symBinAddr: 0x100002E58, symSize: 0x54 }
  - { offset: 0x673C0, size: 0x8, addend: 0x0, symName: __ZNSt7__cxx1112basic_stringIcSt11char_traitsIcESaIcEE9push_backEc, symObjAddr: 0x2674, symBinAddr: 0x100002DB4, symSize: 0xA4 }
  - { offset: 0x6740C, size: 0x8, addend: 0x0, symName: __ZNSt7__cxx1112basic_stringIcSt11char_traitsIcESaIcEE12_M_constructILb1EEEvPKcm, symObjAddr: 0x25D4, symBinAddr: 0x100002D14, symSize: 0xA0 }
  - { offset: 0x6749B, size: 0x8, addend: 0x0, symName: __ZNKSt7__cxx1112basic_stringIcSt11char_traitsIcESaIcEE16_M_get_allocatorEv, symObjAddr: 0x25C0, symBinAddr: 0x100002D00, symSize: 0x14 }
  - { offset: 0x674F9, size: 0x8, addend: 0x0, symName: __ZN5Eigen8symbolic7AddExprINS0_10SymbolExprINS_8internal17symbolic_last_tagEEENS0_9ValueExprINS3_8FixedIntILi1EEEEEEC1ERKS5_RKS9_, symObjAddr: 0x25A4, symBinAddr: 0x100002CE4, symSize: 0x1C }
  - { offset: 0x6754B, size: 0x8, addend: 0x0, symName: __ZN5Eigen8symbolic9ValueExprINS_8internal8FixedIntILi1EEEEC1Ev, symObjAddr: 0x2590, symBinAddr: 0x100002CD0, symSize: 0x14 }
  - { offset: 0x67571, size: 0x8, addend: 0x0, symName: __ZNK5Eigen8symbolic8BaseExprINS0_10SymbolExprINS_8internal17symbolic_last_tagEEEE7derivedEv, symObjAddr: 0x257C, symBinAddr: 0x100002CBC, symSize: 0x14 }
  - { offset: 0x6759B, size: 0x8, addend: 0x0, symName: __ZNSt7__cxx1112basic_stringIcSt11char_traitsIcESaIcEE12_M_constructIPKcEEvT_S8_St20forward_iterator_tag, symObjAddr: 0x249C, symBinAddr: 0x100002BDC, symSize: 0xE0 }
  - { offset: 0x67699, size: 0x8, addend: 0x0, symName: __ZZNSt7__cxx1112basic_stringIcSt11char_traitsIcESaIcEE12_M_constructIPKcEEvT_S8_St20forward_iterator_tagEN6_GuardC1EPS4_, symObjAddr: 0x2444, symBinAddr: 0x100002B84, symSize: 0x24 }
  - { offset: 0x676CC, size: 0x8, addend: 0x0, symName: __ZZNSt7__cxx1112basic_stringIcSt11char_traitsIcESaIcEE12_M_constructIPKcEEvT_S8_St20forward_iterator_tagEN6_GuardD1Ev, symObjAddr: 0x2468, symBinAddr: 0x100002BA8, symSize: 0x34 }
  - { offset: 0x677DC, size: 0x8, addend: 0x0, symName: __ZNSt7__cxx1112basic_stringIcSt11char_traitsIcESaIcEE12_Alloc_hiderC1EPcRKS3_, symObjAddr: 0x23F4, symBinAddr: 0x100002B34, symSize: 0x50 }
  - { offset: 0x67886, size: 0x8, addend: 0x0, symName: __ZNSt15__new_allocatorIcED2Ev, symObjAddr: 0x23E0, symBinAddr: 0x100002B20, symSize: 0x14 }
  - { offset: 0x678C2, size: 0x8, addend: 0x0, symName: __ZNKSt7__cxx1112basic_stringIcSt11char_traitsIcESaIcEE4sizeEv, symObjAddr: 0x2390, symBinAddr: 0x100002AD0, symSize: 0x50 }
  - { offset: 0x67913, size: 0x8, addend: 0x0, symName: __ZNSt7__cxx1112basic_stringIcSt11char_traitsIcESaIcEE9_M_lengthEm, symObjAddr: 0x236C, symBinAddr: 0x100002AAC, symSize: 0x24 }
  - { offset: 0x6794D, size: 0x8, addend: 0x0, symName: __ZNSt7__cxx1112basic_stringIcSt11char_traitsIcESaIcEE11_M_capacityEm, symObjAddr: 0x2348, symBinAddr: 0x100002A88, symSize: 0x24 }
  - { offset: 0x67988, size: 0x8, addend: 0x0, symName: __ZNSt7__cxx1112basic_stringIcSt11char_traitsIcESaIcEE7_M_dataEPc, symObjAddr: 0x2324, symBinAddr: 0x100002A64, symSize: 0x24 }
  - { offset: 0x679C2, size: 0x8, addend: 0x0, symName: __ZNKSt7__cxx1112basic_stringIcSt11char_traitsIcESaIcEE11_M_is_localEv, symObjAddr: 0x22BC, symBinAddr: 0x1000029FC, symSize: 0x68 }
  - { offset: 0x67A10, size: 0x8, addend: 0x0, symName: __ZNSt7__cxx1112basic_stringIcSt11char_traitsIcESaIcEE16_M_get_allocatorEv, symObjAddr: 0x22A8, symBinAddr: 0x1000029E8, symSize: 0x14 }
  - { offset: 0x67A3A, size: 0x8, addend: 0x0, symName: __ZNSt7__cxx1112basic_stringIcSt11char_traitsIcESaIcEE10_M_disposeEv, symObjAddr: 0x2260, symBinAddr: 0x1000029A0, symSize: 0x48 }
  - { offset: 0x67A64, size: 0x8, addend: 0x0, symName: __ZNSt7__cxx1112basic_stringIcSt11char_traitsIcESaIcEE13_M_set_lengthEm, symObjAddr: 0x2218, symBinAddr: 0x100002958, symSize: 0x48 }
  - { offset: 0x67AE9, size: 0x8, addend: 0x0, symName: __ZNSt7__cxx1112basic_stringIcSt11char_traitsIcESaIcEE12_Alloc_hiderC1EPcOS3_, symObjAddr: 0x21C0, symBinAddr: 0x100002900, symSize: 0x58 }
  - { offset: 0x67B9D, size: 0x8, addend: 0x0, symName: __ZNSt7__cxx1112basic_stringIcSt11char_traitsIcESaIcEE13_M_local_dataEv, symObjAddr: 0x21A0, symBinAddr: 0x1000028E0, symSize: 0x20 }
  - { offset: 0x67BC7, size: 0x8, addend: 0x0, symName: __ZNKSt7__cxx1112basic_stringIcSt11char_traitsIcESaIcEE7_M_dataEv, symObjAddr: 0x2188, symBinAddr: 0x1000028C8, symSize: 0x18 }
  - { offset: 0x67BED, size: 0x8, addend: 0x0, symName: __ZN9__gnu_cxx11char_traitsIcE2eqERKcS3_, symObjAddr: 0x2158, symBinAddr: 0x100002898, symSize: 0x30 }
  - { offset: 0x67C2C, size: 0x8, addend: 0x0, symName: __ZN5EigenlsERSoRKNS_10WithFormatINS_6MatrixIdLin1ELin1ELi0ELin1ELin1EEEEE, symObjAddr: 0x211C, symBinAddr: 0x10000285C, symSize: 0x3C }
  - { offset: 0x67C69, size: 0x8, addend: 0x0, symName: __ZNK5Eigen9DenseBaseINS_6MatrixIdLin1ELin1ELi0ELin1ELin1EEEE6formatERKNS_8IOFormatE, symObjAddr: 0x20DC, symBinAddr: 0x10000281C, symSize: 0x40 }
  - { offset: 0x67CB0, size: 0x8, addend: 0x0, symName: __ZN5Eigen6MatrixIdLin1ELi1ELi0ELin1ELi1EEaSINS_13CwiseBinaryOpINS_8internal13scalar_sum_opIddEEKNS_12ArrayWrapperIS1_EEKNS3_INS4_17scalar_product_opIddEEKNS_14CwiseNullaryOpINS4_18scalar_constant_opIdEEKNS_5ArrayIdLin1ELi1ELi0ELin1ELi1EEEEEKNS3_IS6_KNS3_ISB_SJ_S9_EESL_EEEEEEEERS1_RKNS_9DenseBaseIT_EE, symObjAddr: 0x20B8, symBinAddr: 0x1000027F8, symSize: 0x24 }
  - { offset: 0x67CF3, size: 0x8, addend: 0x0, symName: __ZNK5Eigen9ArrayBaseINS_12ArrayWrapperINS_6MatrixIdLin1ELi1ELi0ELin1ELi1EEEEEEplINS_13CwiseBinaryOpINS_8internal17scalar_product_opIddEEKNS_14CwiseNullaryOpINS8_18scalar_constant_opIdEEKNS_5ArrayIdLin1ELi1ELi0ELin1ELi1EEEEEKNS7_INS8_13scalar_sum_opIddEEKNS7_ISA_SI_KS4_EESN_EEEEEEKNS7_INSJ_IdNS8_6traitsIT_E6ScalarEEESL_KSS_EERKNS0_ISS_EE, symObjAddr: 0x2050, symBinAddr: 0x100002790, symSize: 0x68 }
  - { offset: 0x67D38, size: 0x8, addend: 0x0, symName: __ZN5EigenmlIdEEKNS_13CwiseBinaryOpINS_8internal17scalar_product_opINS2_18promote_scalar_argIdT_XsrNS2_14has_ReturnTypeINS_20ScalarBinaryOpTraitsIS5_dNS3_IS5_dEEEEEE5valueEE4typeEdEEKNS2_19plain_constant_typeINS1_INS2_13scalar_sum_opIddEEKNS1_INS3_IddEEKNS_14CwiseNullaryOpINS2_18scalar_constant_opIdEEKNS_5ArrayIdLin1ELi1ELi0ELin1ELi1EEEEEKNS_12ArrayWrapperINS_6MatrixIdLin1ELi1ELi0ELin1ELi1EEEEEEESW_EESC_E4typeEKSX_EERKS5_RKNS_9ArrayBaseISX_EE, symObjAddr: 0x1FAC, symBinAddr: 0x1000026EC, symSize: 0xA4 }
  - { offset: 0x67D7E, size: 0x8, addend: 0x0, symName: __ZNK5Eigen9ArrayBaseINS_13CwiseBinaryOpINS_8internal17scalar_product_opIddEEKNS_14CwiseNullaryOpINS2_18scalar_constant_opIdEEKNS_5ArrayIdLin1ELi1ELi0ELin1ELi1EEEEEKNS_12ArrayWrapperINS_6MatrixIdLin1ELi1ELi0ELin1ELi1EEEEEEEEplISI_EEKNS1_INS2_13scalar_sum_opIdNS2_6traitsIT_E6ScalarEEEKSI_KSN_EERKNS0_ISN_EE, symObjAddr: 0x1F44, symBinAddr: 0x100002684, symSize: 0x68 }
  - { offset: 0x67DC3, size: 0x8, addend: 0x0, symName: __ZN5EigenmlIdEEKNS_13CwiseBinaryOpINS_8internal17scalar_product_opINS2_18promote_scalar_argIdT_XsrNS2_14has_ReturnTypeINS_20ScalarBinaryOpTraitsIS5_dNS3_IS5_dEEEEEE5valueEE4typeEdEEKNS2_19plain_constant_typeINS_12ArrayWrapperINS_6MatrixIdLin1ELi1ELi0ELin1ELi1EEEEESC_E4typeEKSI_EERKS5_RKNS_9ArrayBaseISI_EE, symObjAddr: 0x1EA0, symBinAddr: 0x1000025E0, symSize: 0xA4 }
  - { offset: 0x67E05, size: 0x8, addend: 0x0, symName: __ZN5EigenmlIiEEKNS_13CwiseBinaryOpINS_8internal17scalar_product_opINS2_18promote_scalar_argIdT_XsrNS2_14has_ReturnTypeINS_20ScalarBinaryOpTraitsIS5_dNS3_IS5_dEEEEEE5valueEE4typeEdEEKNS2_19plain_constant_typeINS_12ArrayWrapperINS_6MatrixIdLin1ELi1ELi0ELin1ELi1EEEEESC_E4typeEKSI_EERKS5_RKNS_9ArrayBaseISI_EE, symObjAddr: 0x1DEC, symBinAddr: 0x10000252C, symSize: 0xB4 }
  - { offset: 0x67E4B, size: 0x8, addend: 0x0, symName: __ZN5Eigen15DenseCoeffsBaseINS_6MatrixIdLin1ELi1ELi0ELin1ELi1EEELi1EEclEl, symObjAddr: 0x1D50, symBinAddr: 0x100002490, symSize: 0x9C }
  - { offset: 0x67E90, size: 0x8, addend: 0x0, symName: __ZN5Eigen10MatrixBaseINS_5BlockINS_6MatrixIdLin1ELin1ELi0ELin1ELin1EEELin1ELi1ELb1EEEEaSINS2_IdLin1ELi1ELi0ELin1ELi1EEEEERS4_RKNS_9DenseBaseIT_EE, symObjAddr: 0x1D08, symBinAddr: 0x100002448, symSize: 0x48 }
  - { offset: 0x67ED3, size: 0x8, addend: 0x0, symName: __ZN5Eigen9DenseBaseINS_6MatrixIdLin1ELin1ELi0ELin1ELin1EEEE3colEl, symObjAddr: 0x1CCC, symBinAddr: 0x10000240C, symSize: 0x3C }
  - { offset: 0x67F0E, size: 0x8, addend: 0x0, symName: __ZNK5Eigen9DenseBaseINS_6MatrixIdLin1ELi1ELi0ELin1ELi1EEEE9allFiniteEv, symObjAddr: 0x1C78, symBinAddr: 0x1000023B8, symSize: 0x54 }
  - { offset: 0x67F4F, size: 0x8, addend: 0x0, symName: __ZNK5Eigen9DenseBaseINS_12CwiseUnaryOpINS_8internal13scalar_abs_opIdEEKNS_6MatrixIdLin1ELi1ELi0ELin1ELi1EEEEEE8maxCoeffEv, symObjAddr: 0x1C54, symBinAddr: 0x100002394, symSize: 0x24 }
  - { offset: 0x67F79, size: 0x8, addend: 0x0, symName: __ZNK5Eigen10MatrixBaseINS_6MatrixIdLin1ELi1ELi0ELin1ELi1EEEE8cwiseAbsEv, symObjAddr: 0x1C08, symBinAddr: 0x100002348, symSize: 0x4C }
  - { offset: 0x67FA3, size: 0x8, addend: 0x0, symName: __ZN5Eigen6MatrixIdLin1ELi1ELi0ELin1ELi1EEaSERKS1_, symObjAddr: 0x1BE4, symBinAddr: 0x100002324, symSize: 0x24 }
  - { offset: 0x67FDD, size: 0x8, addend: 0x0, symName: __ZN5Eigen6MatrixIdLin1ELi1ELi0ELin1ELi1EEaSINS_13CwiseBinaryOpINS_8internal17scalar_product_opIddEEKNS_12CwiseUnaryOpINS4_13scalar_sin_opIdEEKNS_12ArrayWrapperIS1_EEEEKNS7_INS4_13scalar_exp_opIdEEKNS3_IS6_KNS7_INS4_18scalar_opposite_opIdEEKNS3_INS4_20scalar_difference_opIddEESC_KNS_14CwiseNullaryOpINS4_18scalar_constant_opIdEEKNS_5ArrayIdLin1ELi1ELi0ELin1ELi1EEEEEEEEESU_EEEEEEEERS1_RKNS_9DenseBaseIT_EE, symObjAddr: 0x1BC0, symBinAddr: 0x100002300, symSize: 0x24 }
  - { offset: 0x68020, size: 0x8, addend: 0x0, symName: __ZNK5Eigen9ArrayBaseINS_12CwiseUnaryOpINS_8internal13scalar_sin_opIdEEKNS_12ArrayWrapperINS_6MatrixIdLin1ELi1ELi0ELin1ELi1EEEEEEEEmlINS1_INS2_13scalar_exp_opIdEEKNS_13CwiseBinaryOpINS2_17scalar_product_opIddEEKNS1_INS2_18scalar_opposite_opIdEEKNSF_INS2_20scalar_difference_opIddEES9_KNS_14CwiseNullaryOpINS2_18scalar_constant_opIdEEKNS_5ArrayIdLin1ELi1ELi0ELin1ELi1EEEEEEEEESV_EEEEEEKNSF_INSG_IdNS2_6traitsIT_E6ScalarEEEKSA_KS12_EERKNS0_IS12_EE, symObjAddr: 0x1B58, symBinAddr: 0x100002298, symSize: 0x68 }
  - { offset: 0x68063, size: 0x8, addend: 0x0, symName: __ZNK5Eigen9ArrayBaseINS_13CwiseBinaryOpINS_8internal17scalar_product_opIddEEKNS_12CwiseUnaryOpINS2_18scalar_opposite_opIdEEKNS1_INS2_20scalar_difference_opIddEEKNS_12ArrayWrapperINS_6MatrixIdLin1ELi1ELi0ELin1ELi1EEEEEKNS_14CwiseNullaryOpINS2_18scalar_constant_opIdEEKNS_5ArrayIdLin1ELi1ELi0ELin1ELi1EEEEEEEEESO_EEE3expEv, symObjAddr: 0x1B0C, symBinAddr: 0x10000224C, symSize: 0x4C }
  - { offset: 0x6808D, size: 0x8, addend: 0x0, symName: __ZNK5Eigen9ArrayBaseINS_12CwiseUnaryOpINS_8internal18scalar_opposite_opIdEEKNS_13CwiseBinaryOpINS2_20scalar_difference_opIddEEKNS_12ArrayWrapperINS_6MatrixIdLin1ELi1ELi0ELin1ELi1EEEEEKNS_14CwiseNullaryOpINS2_18scalar_constant_opIdEEKNS_5ArrayIdLin1ELi1ELi0ELin1ELi1EEEEEEEEEEmlISL_EEKNS5_INS2_17scalar_product_opIdNS2_6traitsIT_E6ScalarEEEKSN_KSS_EERKNS0_ISS_EE, symObjAddr: 0x1AA4, symBinAddr: 0x1000021E4, symSize: 0x68 }
  - { offset: 0x680D0, size: 0x8, addend: 0x0, symName: __ZNK5Eigen9DenseBaseINS_13CwiseBinaryOpINS_8internal20scalar_difference_opIddEEKNS_12ArrayWrapperINS_6MatrixIdLin1ELi1ELi0ELin1ELi1EEEEEKNS_14CwiseNullaryOpINS2_18scalar_constant_opIdEEKNS_5ArrayIdLin1ELi1ELi0ELin1ELi1EEEEEEEEngEv, symObjAddr: 0x1A58, symBinAddr: 0x100002198, symSize: 0x4C }
  - { offset: 0x680FA, size: 0x8, addend: 0x0, symName: __ZNK5Eigen9ArrayBaseINS_12ArrayWrapperINS_6MatrixIdLin1ELi1ELi0ELin1ELi1EEEEEEmiIdEEKNS_13CwiseBinaryOpINS_8internal20scalar_difference_opIdNS8_18promote_scalar_argIdT_XsrNS8_14has_ReturnTypeINS_20ScalarBinaryOpTraitsIdSB_NS9_IdSB_EEEEEE5valueEE4typeEEEKS4_KNS8_19plain_constant_typeIS4_SI_E4typeEEERKSB_, symObjAddr: 0x19B4, symBinAddr: 0x1000020F4, symSize: 0xA4 }
  - { offset: 0x6813E, size: 0x8, addend: 0x0, symName: __ZNK5Eigen9ArrayBaseINS_12ArrayWrapperINS_6MatrixIdLin1ELi1ELi0ELin1ELi1EEEEEE3sinEv, symObjAddr: 0x1968, symBinAddr: 0x1000020A8, symSize: 0x4C }
  - { offset: 0x68168, size: 0x8, addend: 0x0, symName: __ZN5Eigen10MatrixBaseINS_6MatrixIdLin1ELi1ELi0ELin1ELi1EEEE5arrayEv, symObjAddr: 0x193C, symBinAddr: 0x10000207C, symSize: 0x2C }
  - { offset: 0x681AC, size: 0x8, addend: 0x0, symName: __ZN5Eigen12DenseStorageIdLin1ELin1ELin1ELi0EED1Ev, symObjAddr: 0x18FC, symBinAddr: 0x10000203C, symSize: 0x40 }
  - { offset: 0x68203, size: 0x8, addend: 0x0, symName: __ZN5Eigen6MatrixIdLin1ELin1ELi0ELin1ELin1EEC1INS_14CwiseNullaryOpINS_8internal18scalar_constant_opIdEES1_EEEERKNS_9EigenBaseIT_EE, symObjAddr: 0x18C0, symBinAddr: 0x100002000, symSize: 0x3C }
  - { offset: 0x68237, size: 0x8, addend: 0x0, symName: __ZN5Eigen9DenseBaseINS_6MatrixIdLin1ELin1ELi0ELin1ELin1EEEE4ZeroEll, symObjAddr: 0x187C, symBinAddr: 0x100001FBC, symSize: 0x44 }
  - { offset: 0x682A7, size: 0x8, addend: 0x0, symName: __ZN5Eigen6MatrixIdLin1ELi1ELi0ELin1ELi1EEC1INS_14CwiseNullaryOpINS_8internal18scalar_constant_opIdEES1_EEEERKNS_9EigenBaseIT_EE, symObjAddr: 0x1840, symBinAddr: 0x100001F80, symSize: 0x3C }
  - { offset: 0x682DB, size: 0x8, addend: 0x0, symName: __ZN5Eigen9DenseBaseINS_6MatrixIdLin1ELi1ELi0ELin1ELi1EEEE4ZeroEl, symObjAddr: 0x1804, symBinAddr: 0x100001F44, symSize: 0x3C }
  - { offset: 0x68323, size: 0x8, addend: 0x0, symName: __ZN5Eigen12DenseStorageIdLin1ELin1ELi1ELi0EED1Ev, symObjAddr: 0x17D0, symBinAddr: 0x100001F10, symSize: 0x34 }
  - { offset: 0x6837A, size: 0x8, addend: 0x0, symName: __ZN5Eigen6MatrixIdLin1ELi1ELi0ELin1ELi1EEC1INS_14CwiseNullaryOpINS_8internal12linspaced_opIdEES1_EEEERKNS_9EigenBaseIT_EE, symObjAddr: 0x1794, symBinAddr: 0x100001ED4, symSize: 0x3C }
  - { offset: 0x683AE, size: 0x8, addend: 0x0, symName: __ZN5Eigen9DenseBaseINS_6MatrixIdLin1ELi1ELi0ELin1ELi1EEEE9LinSpacedElRKdS5_, symObjAddr: 0x1740, symBinAddr: 0x100001E80, symSize: 0x54 }
  - { offset: 0x683FB, size: 0x8, addend: 0x0, symName: __ZSt3maxIlERKT_S2_S2_, symObjAddr: 0x1708, symBinAddr: 0x100001E48, symSize: 0x38 }
  - { offset: 0x68443, size: 0x8, addend: 0x0, symName: __ZNSt7__cxx1112basic_stringIcSt11char_traitsIcESaIcEEpLEc, symObjAddr: 0x16D8, symBinAddr: 0x100001E18, symSize: 0x30 }
  - { offset: 0x6847E, size: 0x8, addend: 0x0, symName: __ZNSt7__cxx1112basic_stringIcSt11char_traitsIcESaIcEEixEm, symObjAddr: 0x1654, symBinAddr: 0x100001D94, symSize: 0x84 }
  - { offset: 0x684D6, size: 0x8, addend: 0x0, symName: __ZNKSt7__cxx1112basic_stringIcSt11char_traitsIcESaIcEE6lengthEv, symObjAddr: 0x1638, symBinAddr: 0x100001D78, symSize: 0x1C }
  - { offset: 0x68528, size: 0x8, addend: 0x0, symName: __ZNSt7__cxx1112basic_stringIcSt11char_traitsIcESaIcEEC1ERKS4_, symObjAddr: 0x1568, symBinAddr: 0x100001CA8, symSize: 0xD0 }
  - { offset: 0x6861A, size: 0x8, addend: 0x0, symName: __ZNK5Eigen8symbolic8BaseExprINS0_10SymbolExprINS_8internal17symbolic_last_tagEEEEplILi1EEENS0_7AddExprIS5_NS0_9ValueExprINS3_8FixedIntIXT_EEEEEEESB_, symObjAddr: 0x1518, symBinAddr: 0x100001C58, symSize: 0x50 }
  - { offset: 0x68657, size: 0x8, addend: 0x0, symName: __ZNK5Eigen8internal8FixedIntILi1EEclEv, symObjAddr: 0x1500, symBinAddr: 0x100001C40, symSize: 0x18 }
  - { offset: 0x6869B, size: 0x8, addend: 0x0, symName: __ZN5Eigen8internal8FixedIntILi1EEC1Ev, symObjAddr: 0x14EC, symBinAddr: 0x100001C2C, symSize: 0x14 }
  - { offset: 0x686DB, size: 0x8, addend: 0x0, symName: __ZN5Eigen8symbolic10SymbolExprINS_8internal17symbolic_last_tagEEC1Ev, symObjAddr: 0x14D8, symBinAddr: 0x100001C18, symSize: 0x14 }
  - { offset: 0x68748, size: 0x8, addend: 0x0, symName: __ZNSt7__cxx1112basic_stringIcSt11char_traitsIcESaIcEEC1IS3_EEPKcRKS3_, symObjAddr: 0x143C, symBinAddr: 0x100001B7C, symSize: 0x9C }
  - { offset: 0x687F3, size: 0x8, addend: 0x0, symName: __ZNSt7__cxx1112basic_stringIcSt11char_traitsIcESaIcEED1Ev, symObjAddr: 0x1414, symBinAddr: 0x100001B54, symSize: 0x28 }
  - { offset: 0x68836, size: 0x8, addend: 0x0, symName: __ZNSt7__cxx1112basic_stringIcSt11char_traitsIcESaIcEE12_Alloc_hiderD1Ev, symObjAddr: 0x13E8, symBinAddr: 0x100001B28, symSize: 0x2C }
  - { offset: 0x6887B, size: 0x8, addend: 0x0, symName: __ZN9__gnu_cxx11char_traitsIcE6lengthEPKc, symObjAddr: 0x1390, symBinAddr: 0x100001AD0, symSize: 0x58 }
  - { offset: 0x688BB, size: 0x8, addend: 0x0, symName: _main, symObjAddr: 0x818, symBinAddr: 0x100000F58, symSize: 0xB78 }
  - { offset: 0x688FD, size: 0x8, addend: 0x0, symName: __ZZ4mainE9TXTFormat, symObjAddr: 0x38E938, symBinAddr: 0x100020028, symSize: 0x0 }
  - { offset: 0x68DC3, size: 0x8, addend: 0x0, symName: __ZN5Eigen10WithFormatINS_6MatrixIdLin1ELin1ELi0ELin1ELin1EEEED1Ev, symObjAddr: 0x7F4, symBinAddr: 0x100000F34, symSize: 0x24 }
  - { offset: 0x68E06, size: 0x8, addend: 0x0, symName: __ZN5Eigen6MatrixIdLin1ELin1ELi0ELin1ELin1EED1Ev, symObjAddr: 0x7D4, symBinAddr: 0x100000F14, symSize: 0x20 }
  - { offset: 0x68E49, size: 0x8, addend: 0x0, symName: __ZN5Eigen15PlainObjectBaseINS_6MatrixIdLin1ELin1ELi0ELin1ELin1EEEED2Ev, symObjAddr: 0x7B4, symBinAddr: 0x100000EF4, symSize: 0x20 }
  - { offset: 0x68E8C, size: 0x8, addend: 0x0, symName: __ZN5Eigen6MatrixIdLin1ELi1ELi0ELin1ELi1EED1Ev, symObjAddr: 0x794, symBinAddr: 0x100000ED4, symSize: 0x20 }
  - { offset: 0x68ECF, size: 0x8, addend: 0x0, symName: __ZN5Eigen15PlainObjectBaseINS_6MatrixIdLin1ELi1ELi0ELin1ELi1EEEED2Ev, symObjAddr: 0x774, symBinAddr: 0x100000EB4, symSize: 0x20 }
  - { offset: 0x68F12, size: 0x8, addend: 0x0, symName: __ZN5Eigen8IOFormatD1Ev, symObjAddr: 0x70C, symBinAddr: 0x100000E4C, symSize: 0x68 }
  - { offset: 0x68FD7, size: 0x8, addend: 0x0, symName: __ZN5Eigen8IOFormatC1EiiRKNSt7__cxx1112basic_stringIcSt11char_traitsIcESaIcEEES8_S8_S8_S8_S8_c, symObjAddr: 0x4F0, symBinAddr: 0x100000C30, symSize: 0x21C }
  - { offset: 0x6910F, size: 0x8, addend: 0x0, symName: __ZN5Eigen8internal5all_tC1Ev, symObjAddr: 0x4DC, symBinAddr: 0x100000C1C, symSize: 0x14 }
  - { offset: 0x69131, size: 0x8, addend: 0x0, symName: __ZN5Eigen8internal4pabsI13__Float64x2_tEET_RKS3_, symObjAddr: 0x4B4, symBinAddr: 0x100000BF4, symSize: 0x28 }
  - { offset: 0x69188, size: 0x8, addend: 0x0, symName: __ZN5Eigen8internal7pstoreuId13__Float64x2_tEEvPT_RKT0_, symObjAddr: 0x478, symBinAddr: 0x100000BB8, symSize: 0x3C }
  - { offset: 0x69202, size: 0x8, addend: 0x0, symName: __ZN5Eigen8internal6pstoreId13__Float64x2_tEEvPT_RKT0_, symObjAddr: 0x43C, symBinAddr: 0x100000B7C, symSize: 0x3C }
  - { offset: 0x6927C, size: 0x8, addend: 0x0, symName: __ZN5Eigen8internal6ploaduI13__Float64x2_tEET_PKNS0_15unpacket_traitsIS3_E4typeE, symObjAddr: 0x414, symBinAddr: 0x100000B54, symSize: 0x28 }
  - { offset: 0x692D3, size: 0x8, addend: 0x0, symName: __ZN5Eigen8internal5ploadI13__Float64x2_tEET_PKNS0_15unpacket_traitsIS3_E4typeE, symObjAddr: 0x3EC, symBinAddr: 0x100000B2C, symSize: 0x28 }
  - { offset: 0x6932A, size: 0x8, addend: 0x0, symName: __ZN5Eigen8internal4pmaxI13__Float64x2_tEET_RKS3_S5_, symObjAddr: 0x3AC, symBinAddr: 0x100000AEC, symSize: 0x40 }
  - { offset: 0x6939B, size: 0x8, addend: 0x0, symName: __ZN5Eigen8internal4pmulI13__Float64x2_tEET_RKS3_S5_, symObjAddr: 0x370, symBinAddr: 0x100000AB0, symSize: 0x3C }
  - { offset: 0x6940C, size: 0x8, addend: 0x0, symName: __ZN5Eigen8internal4paddI13__Float64x2_tEET_RKS3_S5_, symObjAddr: 0x334, symBinAddr: 0x100000A74, symSize: 0x3C }
  - { offset: 0x6947D, size: 0x8, addend: 0x0, symName: __ZN5Eigen8internal5pset1I13__Float64x2_tEET_RKNS0_15unpacket_traitsIS3_E4typeE, symObjAddr: 0x30C, symBinAddr: 0x100000A4C, symSize: 0x28 }
  - { offset: 0x694D4, size: 0x8, addend: 0x0, symName: __ZN5Eigen8internal12aligned_freeEPv, symObjAddr: 0x2EC, symBinAddr: 0x100000A2C, symSize: 0x20 }
  - { offset: 0x69501, size: 0x8, addend: 0x0, symName: __ZN5Eigen8internal14aligned_mallocEm, symObjAddr: 0x234, symBinAddr: 0x100000974, symSize: 0xB8 }
  - { offset: 0x69544, size: 0x8, addend: 0x0, symName: __ZN5Eigen8internal28check_that_malloc_is_allowedEv, symObjAddr: 0x22C, symBinAddr: 0x10000096C, symSize: 0x8 }
  - { offset: 0x6955C, size: 0x8, addend: 0x0, symName: __ZN5Eigen8internal19throw_std_bad_allocEv, symObjAddr: 0x1F4, symBinAddr: 0x100000934, symSize: 0x38 }
  - { offset: 0x6957A, size: 0x8, addend: 0x0, symName: __ZSt3minImERKT_S2_S2_, symObjAddr: 0x1BC, symBinAddr: 0x1000008FC, symSize: 0x38 }
  - { offset: 0x69721, size: 0x8, addend: 0x0, symName: __ZNSt8ios_base5widthEl, symObjAddr: 0x18C, symBinAddr: 0x1000008CC, symSize: 0x30 }
  - { offset: 0x69778, size: 0x8, addend: 0x0, symName: __ZNKSt8ios_base5widthEv, symObjAddr: 0x174, symBinAddr: 0x1000008B4, symSize: 0x18 }
  - { offset: 0x697A2, size: 0x8, addend: 0x0, symName: __ZNSt8ios_base9precisionEl, symObjAddr: 0x144, symBinAddr: 0x100000884, symSize: 0x30 }
  - { offset: 0x697EA, size: 0x8, addend: 0x0, symName: __ZSt3absd, symObjAddr: 0x128, symBinAddr: 0x100000868, symSize: 0x1C }
  - { offset: 0x69813, size: 0x8, addend: 0x0, symName: __ZSt17__size_to_integerl, symObjAddr: 0x114, symBinAddr: 0x100000854, symSize: 0x14 }
  - { offset: 0x6983D, size: 0x8, addend: 0x0, symName: __ZNSt11char_traitsIcE4copyEPcPKcm, symObjAddr: 0xC0, symBinAddr: 0x100000800, symSize: 0x54 }
  - { offset: 0x69889, size: 0x8, addend: 0x0, symName: __ZNSt11char_traitsIcE6lengthEPKc, symObjAddr: 0x84, symBinAddr: 0x1000007C4, symSize: 0x3C }
  - { offset: 0x698CD, size: 0x8, addend: 0x0, symName: __ZNSt11char_traitsIcE6assignERcRKc, symObjAddr: 0x5C, symBinAddr: 0x10000079C, symSize: 0x28 }
  - { offset: 0x69926, size: 0x8, addend: 0x0, symName: __ZNSt9bad_allocC1Ev, symObjAddr: 0x28, symBinAddr: 0x100000768, symSize: 0x34 }
  - { offset: 0x69966, size: 0x8, addend: 0x0, symName: __ZNSt9exceptionC2Ev, symObjAddr: 0x0, symBinAddr: 0x100000740, symSize: 0x28 }
...
